---
triple:          'arm64-apple-darwin'
binary-path:     '/Users/az/Desktop/sinfool/Sandbox7/AIOBypassLoginNoAdsCommercialsver23226/.theos/obj/arm64/AIOBypassLoginNoAdsCommercialsver23226.dylib'
relocations:
  - { offsetInCU: 0x1E, offset: 0x1E, size: 0x8, addend: 0x0, symName: __ZL15_logosLocalInitv, symObjAddr: 0x0, symBinAddr: 0x4000, symSize: 0x16C }
  - { offsetInCU: 0x4A, offset: 0x4A, size: 0x8, addend: 0x0, symName: '__ZL39_logos_orig$_ungrouped$MTVConfig$getAds', symObjAddr: 0x1D20, symBinAddr: 0xC028, symSize: 0x0 }
  - { offsetInCU: 0xBF, offset: 0xBF, size: 0x8, addend: 0x0, symName: '__ZL52_logos_orig$_ungrouped$MTVTVESubscriber$isAuthorized', symObjAddr: 0x1D28, symBinAddr: 0xC030, symSize: 0x0 }
  - { offsetInCU: 0x10A, offset: 0x10A, size: 0x8, addend: 0x0, symName: '__ZL55_logos_orig$_ungrouped$MTVTVESubscriber$isAuthenticated', symObjAddr: 0x1D30, symBinAddr: 0xC038, symSize: 0x0 }
  - { offsetInCU: 0x123, offset: 0x123, size: 0x8, addend: 0x0, symName: '__ZL57_logos_orig$_ungrouped$MTVBrowseAdTileView$initWithFrame$', symObjAddr: 0x1D38, symBinAddr: 0xC040, symSize: 0x0 }
  - { offsetInCU: 0x1FB, offset: 0x1FB, size: 0x8, addend: 0x0, symName: '__ZL51_logos_orig$_ungrouped$MTVHomeAdView$initWithFrame$', symObjAddr: 0x1D40, symBinAddr: 0xC048, symSize: 0x0 }
  - { offsetInCU: 0x239, offset: 0x239, size: 0x8, addend: 0x0, symName: '__ZL51_logos_orig$_ungrouped$MTVShowAdView$initWithFrame$', symObjAddr: 0x1D48, symBinAddr: 0xC050, symSize: 0x0 }
  - { offsetInCU: 0x277, offset: 0x277, size: 0x8, addend: 0x0, symName: '__ZL53_logos_orig$_ungrouped$MTVBrowseAdView$initWithFrame$', symObjAddr: 0x1D50, symBinAddr: 0xC058, symSize: 0x0 }
  - { offsetInCU: 0x2B5, offset: 0x2B5, size: 0x8, addend: 0x0, symName: '__ZL55_logos_orig$_ungrouped$MTVOnTvTileAdView$initWithFrame$', symObjAddr: 0x1D58, symBinAddr: 0xC060, symSize: 0x0 }
  - { offsetInCU: 0x2F3, offset: 0x2F3, size: 0x8, addend: 0x0, symName: '__ZL47_logos_orig$_ungrouped$VMNPlayer$spinnerEnabled', symObjAddr: 0x1D60, symBinAddr: 0xC068, symSize: 0x0 }
  - { offsetInCU: 0x336, offset: 0x336, size: 0x8, addend: 0x0, symName: __ZL15_logosLocalInitv, symObjAddr: 0x0, symBinAddr: 0x4000, symSize: 0x16C }
  - { offsetInCU: 0x4D3, offset: 0x4D3, size: 0x8, addend: 0x0, symName: '__ZL41_logos_method$_ungrouped$MTVConfig$getAdsP9MTVConfigP13objc_selector', symObjAddr: 0x16C, symBinAddr: 0x416C, symSize: 0x8 }
  - { offsetInCU: 0x519, offset: 0x519, size: 0x8, addend: 0x0, symName: '__ZL41_logos_method$_ungrouped$MTVConfig$getAdsP9MTVConfigP13objc_selector', symObjAddr: 0x16C, symBinAddr: 0x416C, symSize: 0x8 }
  - { offsetInCU: 0x54D, offset: 0x54D, size: 0x8, addend: 0x0, symName: '__ZL54_logos_method$_ungrouped$MTVTVESubscriber$isAuthorizedP16MTVTVESubscriberP13objc_selector', symObjAddr: 0x174, symBinAddr: 0x4174, symSize: 0x8 }
  - { offsetInCU: 0x581, offset: 0x581, size: 0x8, addend: 0x0, symName: '__ZL57_logos_method$_ungrouped$MTVTVESubscriber$isAuthenticatedP16MTVTVESubscriberP13objc_selector', symObjAddr: 0x17C, symBinAddr: 0x417C, symSize: 0x8 }
  - { offsetInCU: 0x5B5, offset: 0x5B5, size: 0x8, addend: 0x0, symName: '__ZL59_logos_method$_ungrouped$MTVBrowseAdTileView$initWithFrame$P19MTVBrowseAdTileViewP13objc_selector6CGRect', symObjAddr: 0x184, symBinAddr: 0x4184, symSize: 0x8 }
  - { offsetInCU: 0x5F4, offset: 0x5F4, size: 0x8, addend: 0x0, symName: '__ZL53_logos_method$_ungrouped$MTVHomeAdView$initWithFrame$P13MTVHomeAdViewP13objc_selector6CGRect', symObjAddr: 0x18C, symBinAddr: 0x418C, symSize: 0x8 }
  - { offsetInCU: 0x633, offset: 0x633, size: 0x8, addend: 0x0, symName: '__ZL53_logos_method$_ungrouped$MTVShowAdView$initWithFrame$P13MTVShowAdViewP13objc_selector6CGRect', symObjAddr: 0x194, symBinAddr: 0x4194, symSize: 0x8 }
  - { offsetInCU: 0x672, offset: 0x672, size: 0x8, addend: 0x0, symName: '__ZL55_logos_method$_ungrouped$MTVBrowseAdView$initWithFrame$P15MTVBrowseAdViewP13objc_selector6CGRect', symObjAddr: 0x19C, symBinAddr: 0x419C, symSize: 0x8 }
  - { offsetInCU: 0x6B1, offset: 0x6B1, size: 0x8, addend: 0x0, symName: '__ZL57_logos_method$_ungrouped$MTVOnTvTileAdView$initWithFrame$P17MTVOnTvTileAdViewP13objc_selector6CGRect', symObjAddr: 0x1A4, symBinAddr: 0x41A4, symSize: 0x8 }
  - { offsetInCU: 0x6F0, offset: 0x6F0, size: 0x8, addend: 0x0, symName: '__ZL49_logos_method$_ungrouped$VMNPlayer$spinnerEnabledP9VMNPlayerP13objc_selector', symObjAddr: 0x1AC, symBinAddr: 0x41AC, symSize: 0x8 }
...
