---
triple:          'arm64e-apple-darwin'
binary-path:     '/Users/az/Desktop/sinfool/Sandbox6/IncognitoVideoMode/.theos/obj/arm64e/IncognitoVideoMode.dylib'
relocations:
  - { offsetInCU: 0x1E, offset: 0x1E, size: 0x8, addend: 0x0, symName: __ZL15_logosLocalInitv, symObjAddr: 0x0, symBinAddr: 0x4000, symSize: 0x2AC }
  - { offsetInCU: 0x4A, offset: 0x4A, size: 0x8, addend: 0x0, symName: '__ZL56_logos_orig$_ungrouped$CUShutterButton$setMode$animated$', symObjAddr: 0x2E68, symBinAddr: 0xC070, symSize: 0x0 }
  - { offsetInCU: 0xAA, offset: 0xAA, size: 0x8, addend: 0x0, symName: '__ZL60_logos_orig$_ungrouped$CAMModeDial$setSelectedMode$animated$', symObjAddr: 0x2E70, symBinAddr: 0xC078, symSize: 0x0 }
  - { offsetInCU: 0xE9, offset: 0xE9, size: 0x8, addend: 0x0, symName: '__ZL48_logos_orig$_ungrouped$CAMTopBar$backgroundStyle', symObjAddr: 0x2E78, symBinAddr: 0xC080, symSize: 0x0 }
  - { offsetInCU: 0x122, offset: 0x122, size: 0x8, addend: 0x0, symName: '__ZL51_logos_orig$_ungrouped$CAMBottomBar$backgroundStyle', symObjAddr: 0x2E80, symBinAddr: 0xC088, symSize: 0x0 }
  - { offsetInCU: 0x15B, offset: 0x15B, size: 0x8, addend: 0x0, symName: '__ZL92_logos_orig$_ungrouped$CAMViewfinderViewController$_shouldHideElapsedTimeViewForMode$device$', symObjAddr: 0x2E88, symBinAddr: 0xC090, symSize: 0x0 }
  - { offsetInCU: 0x19E, offset: 0x19E, size: 0x8, addend: 0x0, symName: '__ZL99_logos_orig$_ungrouped$CAMViewfinderViewController$_shouldHideStillDuringVideoButtonForMode$device$', symObjAddr: 0x2E90, symBinAddr: 0xC098, symSize: 0x0 }
  - { offsetInCU: 0x1B7, offset: 0x1B7, size: 0x8, addend: 0x0, symName: '__ZL95_logos_orig$_ungrouped$CAMViewfinderViewController$_shouldHideFramerateIndicatorForMode$device$', symObjAddr: 0x2E98, symBinAddr: 0xC0A0, symSize: 0x0 }
  - { offsetInCU: 0x1D0, offset: 0x1D0, size: 0x8, addend: 0x0, symName: '__ZL85_logos_orig$_ungrouped$CAMViewfinderViewController$_shouldRotateTopBarForMode$device$', symObjAddr: 0x2EA0, symBinAddr: 0xC0A8, symSize: 0x0 }
  - { offsetInCU: 0x1E9, offset: 0x1E9, size: 0x8, addend: 0x0, symName: '__ZL88_logos_orig$_ungrouped$CAMViewfinderViewController$_shouldHideFlashButtonForMode$device$', symObjAddr: 0x2EA8, symBinAddr: 0xC0B0, symSize: 0x0 }
  - { offsetInCU: 0x202, offset: 0x202, size: 0x8, addend: 0x0, symName: '__ZL86_logos_orig$_ungrouped$CAMViewfinderViewController$_shouldHideHDRButtonForMode$device$', symObjAddr: 0x2EB0, symBinAddr: 0xC0B8, symSize: 0x0 }
  - { offsetInCU: 0x21B, offset: 0x21B, size: 0x8, addend: 0x0, symName: '__ZL87_logos_orig$_ungrouped$CAMViewfinderViewController$_shouldHideIrisButtonForMode$device$', symObjAddr: 0x2EB8, symBinAddr: 0xC0C0, symSize: 0x0 }
  - { offsetInCU: 0x234, offset: 0x234, size: 0x8, addend: 0x0, symName: '__ZL88_logos_orig$_ungrouped$CAMViewfinderViewController$_shouldHideTimerButtonForMode$device$', symObjAddr: 0x2EC0, symBinAddr: 0xC0C8, symSize: 0x0 }
  - { offsetInCU: 0x24D, offset: 0x24D, size: 0x8, addend: 0x0, symName: '__ZL87_logos_orig$_ungrouped$CAMViewfinderViewController$_shouldHideFlipButtonForMode$device$', symObjAddr: 0x2EC8, symBinAddr: 0xC0D0, symSize: 0x0 }
  - { offsetInCU: 0x266, offset: 0x266, size: 0x8, addend: 0x0, symName: '__ZL86_logos_orig$_ungrouped$CAMViewfinderViewController$_shouldHideImageWellForMode$device$', symObjAddr: 0x2ED0, symBinAddr: 0xC0D8, symSize: 0x0 }
  - { offsetInCU: 0x27F, offset: 0x27F, size: 0x8, addend: 0x0, symName: '__ZL89_logos_orig$_ungrouped$CAMViewfinderViewController$_shouldHideFilterButtonForMode$device$', symObjAddr: 0x2ED8, symBinAddr: 0xC0E0, symSize: 0x0 }
  - { offsetInCU: 0x2A2, offset: 0x2A2, size: 0x8, addend: 0x0, symName: __ZL15_logosLocalInitv, symObjAddr: 0x0, symBinAddr: 0x4000, symSize: 0x2AC }
  - { offsetInCU: 0x45C, offset: 0x45C, size: 0x8, addend: 0x0, symName: '__ZL58_logos_method$_ungrouped$CUShutterButton$setMode$animated$P15CUShutterButtonP13objc_selectorxb', symObjAddr: 0x2AC, symBinAddr: 0x42AC, symSize: 0x10 }
  - { offsetInCU: 0x4B3, offset: 0x4B3, size: 0x8, addend: 0x0, symName: '__ZL58_logos_method$_ungrouped$CUShutterButton$setMode$animated$P15CUShutterButtonP13objc_selectorxb', symObjAddr: 0x2AC, symBinAddr: 0x42AC, symSize: 0x10 }
  - { offsetInCU: 0x506, offset: 0x506, size: 0x8, addend: 0x0, symName: '__ZL62_logos_method$_ungrouped$CAMModeDial$setSelectedMode$animated$P11CAMModeDialP13objc_selectorxb', symObjAddr: 0x2BC, symBinAddr: 0x42BC, symSize: 0x10 }
  - { offsetInCU: 0x52B, offset: 0x52B, size: 0x8, addend: 0x0, symName: '__ZL62_logos_method$_ungrouped$CAMModeDial$setSelectedMode$animated$P11CAMModeDialP13objc_selectorxb', symObjAddr: 0x2BC, symBinAddr: 0x42BC, symSize: 0x10 }
  - { offsetInCU: 0x57E, offset: 0x57E, size: 0x8, addend: 0x0, symName: '__ZL50_logos_method$_ungrouped$CAMTopBar$backgroundStyleP9CAMTopBarP13objc_selector', symObjAddr: 0x2CC, symBinAddr: 0x42CC, symSize: 0x8 }
  - { offsetInCU: 0x5A3, offset: 0x5A3, size: 0x8, addend: 0x0, symName: '__ZL50_logos_method$_ungrouped$CAMTopBar$backgroundStyleP9CAMTopBarP13objc_selector', symObjAddr: 0x2CC, symBinAddr: 0x42CC, symSize: 0x8 }
  - { offsetInCU: 0x5D7, offset: 0x5D7, size: 0x8, addend: 0x0, symName: '__ZL53_logos_method$_ungrouped$CAMBottomBar$backgroundStyleP12CAMBottomBarP13objc_selector', symObjAddr: 0x2D4, symBinAddr: 0x42D4, symSize: 0x8 }
  - { offsetInCU: 0x60B, offset: 0x60B, size: 0x8, addend: 0x0, symName: '__ZL94_logos_method$_ungrouped$CAMViewfinderViewController$_shouldHideElapsedTimeViewForMode$device$P27CAMViewfinderViewControllerP13objc_selectorxx', symObjAddr: 0x2DC, symBinAddr: 0x42DC, symSize: 0x8 }
  - { offsetInCU: 0x655, offset: 0x655, size: 0x8, addend: 0x0, symName: '__ZL101_logos_method$_ungrouped$CAMViewfinderViewController$_shouldHideStillDuringVideoButtonForMode$device$P27CAMViewfinderViewControllerP13objc_selectorxx', symObjAddr: 0x2E4, symBinAddr: 0x42E4, symSize: 0x8 }
  - { offsetInCU: 0x69F, offset: 0x69F, size: 0x8, addend: 0x0, symName: '__ZL97_logos_method$_ungrouped$CAMViewfinderViewController$_shouldHideFramerateIndicatorForMode$device$P27CAMViewfinderViewControllerP13objc_selectorxx', symObjAddr: 0x2EC, symBinAddr: 0x42EC, symSize: 0x8 }
  - { offsetInCU: 0x6E9, offset: 0x6E9, size: 0x8, addend: 0x0, symName: '__ZL87_logos_method$_ungrouped$CAMViewfinderViewController$_shouldRotateTopBarForMode$device$P27CAMViewfinderViewControllerP13objc_selectorxx', symObjAddr: 0x2F4, symBinAddr: 0x42F4, symSize: 0x8 }
  - { offsetInCU: 0x733, offset: 0x733, size: 0x8, addend: 0x0, symName: '__ZL90_logos_method$_ungrouped$CAMViewfinderViewController$_shouldHideFlashButtonForMode$device$P27CAMViewfinderViewControllerP13objc_selectorxx', symObjAddr: 0x2FC, symBinAddr: 0x42FC, symSize: 0x8 }
  - { offsetInCU: 0x77D, offset: 0x77D, size: 0x8, addend: 0x0, symName: '__ZL88_logos_method$_ungrouped$CAMViewfinderViewController$_shouldHideHDRButtonForMode$device$P27CAMViewfinderViewControllerP13objc_selectorxx', symObjAddr: 0x304, symBinAddr: 0x4304, symSize: 0x8 }
  - { offsetInCU: 0x7C7, offset: 0x7C7, size: 0x8, addend: 0x0, symName: '__ZL89_logos_method$_ungrouped$CAMViewfinderViewController$_shouldHideIrisButtonForMode$device$P27CAMViewfinderViewControllerP13objc_selectorxx', symObjAddr: 0x30C, symBinAddr: 0x430C, symSize: 0x8 }
  - { offsetInCU: 0x811, offset: 0x811, size: 0x8, addend: 0x0, symName: '__ZL90_logos_method$_ungrouped$CAMViewfinderViewController$_shouldHideTimerButtonForMode$device$P27CAMViewfinderViewControllerP13objc_selectorxx', symObjAddr: 0x314, symBinAddr: 0x4314, symSize: 0x8 }
  - { offsetInCU: 0x85B, offset: 0x85B, size: 0x8, addend: 0x0, symName: '__ZL89_logos_method$_ungrouped$CAMViewfinderViewController$_shouldHideFlipButtonForMode$device$P27CAMViewfinderViewControllerP13objc_selectorxx', symObjAddr: 0x31C, symBinAddr: 0x431C, symSize: 0x8 }
  - { offsetInCU: 0x8A5, offset: 0x8A5, size: 0x8, addend: 0x0, symName: '__ZL88_logos_method$_ungrouped$CAMViewfinderViewController$_shouldHideImageWellForMode$device$P27CAMViewfinderViewControllerP13objc_selectorxx', symObjAddr: 0x324, symBinAddr: 0x4324, symSize: 0x8 }
  - { offsetInCU: 0x8EF, offset: 0x8EF, size: 0x8, addend: 0x0, symName: '__ZL91_logos_method$_ungrouped$CAMViewfinderViewController$_shouldHideFilterButtonForMode$device$P27CAMViewfinderViewControllerP13objc_selectorxx', symObjAddr: 0x32C, symBinAddr: 0x432C, symSize: 0x8 }
...
