---
triple:          'arm64e-apple-darwin'
binary-path:     '/Users/az/Desktop/sinfool/Sandbox6/ColorCustomierYouTubeOLED/.theos/obj/arm64e/ColorCustomierYouTubeOLED.dylib'
relocations:
  - { offsetInCU: 0x1E, offset: 0x1E, size: 0x8, addend: 0x0, symName: __ZL15_logosLocalInitv, symObjAddr: 0x0, symBinAddr: 0x4000, symSize: 0x56C }
  - { offsetInCU: 0x4A, offset: 0x4A, size: 0x8, addend: 0x0, symName: '__ZL121_logos_orig$_ungrouped$UIStatusBarNewUIStyleAttributes$initWithRequest$backgroundColor$foregroundColor$hasBusyBackground$', symObjAddr: 0x8108, symBinAddr: 0xC070, symSize: 0x0 }
  - { offsetInCU: 0xDA, offset: 0xDA, size: 0x8, addend: 0x0, symName: '__ZL73_logos_orig$_ungrouped$YTAppColorStyle$setThemeColor$titleColor$animated$', symObjAddr: 0x8110, symBinAddr: 0xC078, symSize: 0x0 }
  - { offsetInCU: 0x11E, offset: 0x11E, size: 0x8, addend: 0x0, symName: '__ZL59_logos_orig$_ungrouped$YTCollectionView$setBackgroundColor$', symObjAddr: 0x8118, symBinAddr: 0xC080, symSize: 0x0 }
  - { offsetInCU: 0x158, offset: 0x158, size: 0x8, addend: 0x0, symName: '__ZL64_logos_orig$_ungrouped$YTAsyncCollectionView$setBackgroundColor$', symObjAddr: 0x8120, symBinAddr: 0xC088, symSize: 0x0 }
  - { offsetInCU: 0x192, offset: 0x192, size: 0x8, addend: 0x0, symName: '__ZL54_logos_orig$_ungrouped$YTVideoView$setBackgroundColor$', symObjAddr: 0x8128, symBinAddr: 0xC090, symSize: 0x0 }
  - { offsetInCU: 0x1CC, offset: 0x1CC, size: 0x8, addend: 0x0, symName: '__ZL68_logos_orig$_ungrouped$YTCollectionSeparatorView$setBackgroundColor$', symObjAddr: 0x8130, symBinAddr: 0xC098, symSize: 0x0 }
  - { offsetInCU: 0x206, offset: 0x206, size: 0x8, addend: 0x0, symName: '__ZL63_logos_orig$_ungrouped$YTNGWatchMiniBarView$setBackgroundColor$', symObjAddr: 0x8138, symBinAddr: 0xC0A0, symSize: 0x0 }
  - { offsetInCU: 0x240, offset: 0x240, size: 0x8, addend: 0x0, symName: '__ZL61_logos_orig$_ungrouped$YTPivotBarItemView$setBackgroundColor$', symObjAddr: 0x8140, symBinAddr: 0xC0A8, symSize: 0x0 }
  - { offsetInCU: 0x27A, offset: 0x27A, size: 0x8, addend: 0x0, symName: '__ZL54_logos_orig$_ungrouped$YTColdConfig$isDarkThemeAllowed', symObjAddr: 0x8148, symBinAddr: 0xC0B0, symSize: 0x0 }
  - { offsetInCU: 0x2B3, offset: 0x2B3, size: 0x8, addend: 0x0, symName: '__ZL60_logos_orig$_ungrouped$YTPermissionsView$setBackgroundColor$', symObjAddr: 0x8150, symBinAddr: 0xC0B8, symSize: 0x0 }
  - { offsetInCU: 0x2ED, offset: 0x2ED, size: 0x8, addend: 0x0, symName: '__ZL76_logos_orig$_ungrouped$YTChannelCreationFormResponseView$setBackgroundColor$', symObjAddr: 0x8158, symBinAddr: 0xC0C0, symSize: 0x0 }
  - { offsetInCU: 0x327, offset: 0x327, size: 0x8, addend: 0x0, symName: '__ZL64_logos_orig$_ungrouped$GOOTransitionableView$setBackgroundColor$', symObjAddr: 0x8160, symBinAddr: 0xC0C8, symSize: 0x0 }
  - { offsetInCU: 0x361, offset: 0x361, size: 0x8, addend: 0x0, symName: '__ZL61_logos_orig$_ungrouped$YTInlineSignInView$setBackgroundColor$', symObjAddr: 0x8168, symBinAddr: 0xC0D0, symSize: 0x0 }
  - { offsetInCU: 0x39B, offset: 0x39B, size: 0x8, addend: 0x0, symName: '__ZL60_logos_orig$_ungrouped$QTMCollectionView$setBackgroundColor$', symObjAddr: 0x8170, symBinAddr: 0xC0D8, symSize: 0x0 }
  - { offsetInCU: 0x3D5, offset: 0x3D5, size: 0x8, addend: 0x0, symName: '__ZL57_logos_orig$_ungrouped$YTSettingsCell$setBackgroundColor$', symObjAddr: 0x8178, symBinAddr: 0xC0E0, symSize: 0x0 }
  - { offsetInCU: 0x40F, offset: 0x40F, size: 0x8, addend: 0x0, symName: '__ZL55_logos_orig$_ungrouped$YTNavigationBar$setBarTintColor$', symObjAddr: 0x8180, symBinAddr: 0xC0E8, symSize: 0x0 }
  - { offsetInCU: 0x449, offset: 0x449, size: 0x8, addend: 0x0, symName: '__ZL57_logos_orig$_ungrouped$GOOPopoverView$setBackgroundColor$', symObjAddr: 0x8188, symBinAddr: 0xC0F0, symSize: 0x0 }
  - { offsetInCU: 0x483, offset: 0x483, size: 0x8, addend: 0x0, symName: '__ZL56_logos_orig$_ungrouped$GOODialogView$setBackgroundColor$', symObjAddr: 0x8190, symBinAddr: 0xC0F8, symSize: 0x0 }
  - { offsetInCU: 0x4BD, offset: 0x4BD, size: 0x8, addend: 0x0, symName: '__ZL62_logos_orig$_ungrouped$GOODialogView$setActionButtonIconColor$', symObjAddr: 0x8198, symBinAddr: 0xC100, symSize: 0x0 }
  - { offsetInCU: 0x4D6, offset: 0x4D6, size: 0x8, addend: 0x0, symName: '__ZL63_logos_orig$_ungrouped$GOODialogView$setActionButtonTitleColor$', symObjAddr: 0x81A0, symBinAddr: 0xC108, symSize: 0x0 }
  - { offsetInCU: 0x4EF, offset: 0x4EF, size: 0x8, addend: 0x0, symName: '__ZL64_logos_orig$_ungrouped$GOODialogActionButton$setBackgroundColor$', symObjAddr: 0x81A8, symBinAddr: 0xC110, symSize: 0x0 }
  - { offsetInCU: 0x529, offset: 0x529, size: 0x8, addend: 0x0, symName: '__ZL59_logos_orig$_ungrouped$YTShareTitleView$setBackgroundColor$', symObjAddr: 0x81B0, symBinAddr: 0xC118, symSize: 0x0 }
  - { offsetInCU: 0x563, offset: 0x563, size: 0x8, addend: 0x0, symName: '__ZL64_logos_orig$_ungrouped$YTSharePanelPromoView$setBackgroundColor$', symObjAddr: 0x81B8, symBinAddr: 0xC120, symSize: 0x0 }
  - { offsetInCU: 0x59D, offset: 0x59D, size: 0x8, addend: 0x0, symName: '__ZL51_logos_orig$_ungrouped$YTButton$setBackgroundColor$', symObjAddr: 0x81C0, symBinAddr: 0xC128, symSize: 0x0 }
  - { offsetInCU: 0x5D7, offset: 0x5D7, size: 0x8, addend: 0x0, symName: '__ZL48_logos_orig$_ungrouped$QTMSwitch$setOnTintColor$', symObjAddr: 0x81C8, symBinAddr: 0xC130, symSize: 0x0 }
  - { offsetInCU: 0x611, offset: 0x611, size: 0x8, addend: 0x0, symName: '__ZL50_logos_orig$_ungrouped$QTMSwitch$setOffThumbColor$', symObjAddr: 0x81D0, symBinAddr: 0xC138, symSize: 0x0 }
  - { offsetInCU: 0x62A, offset: 0x62A, size: 0x8, addend: 0x0, symName: '__ZL50_logos_orig$_ungrouped$QTMSwitch$setOffTrackColor$', symObjAddr: 0x81D8, symBinAddr: 0xC140, symSize: 0x0 }
  - { offsetInCU: 0x643, offset: 0x643, size: 0x8, addend: 0x0, symName: '__ZL53_logos_orig$_ungrouped$UIKBRenderConfig$lightKeyboard', symObjAddr: 0x81E0, symBinAddr: 0xC148, symSize: 0x0 }
  - { offsetInCU: 0x67C, offset: 0x67C, size: 0x8, addend: 0x0, symName: '__ZL56_logos_orig$_ungrouped$UIDevice$_keyboardGraphicsQuality', symObjAddr: 0x81E8, symBinAddr: 0xC150, symSize: 0x0 }
  - { offsetInCU: 0x85A, offset: 0x85A, size: 0x8, addend: 0x0, symName: '__ZL59_logos_orig$_ungrouped$YTTopAlignedView$setBackgroundColor$', symObjAddr: 0x81F0, symBinAddr: 0xC158, symSize: 0x0 }
  - { offsetInCU: 0x89E, offset: 0x89E, size: 0x8, addend: 0x0, symName: __ZL15_logosLocalInitv, symObjAddr: 0x0, symBinAddr: 0x4000, symSize: 0x56C }
  - { offsetInCU: 0xDB4, offset: 0xDB4, size: 0x8, addend: 0x0, symName: '__ZL123_logos_method$_ungrouped$UIStatusBarNewUIStyleAttributes$initWithRequest$backgroundColor$foregroundColor$hasBusyBackground$P31UIStatusBarNewUIStyleAttributesP13objc_selectorP11objc_objectS4_S4_b', symObjAddr: 0x56C, symBinAddr: 0x456C, symSize: 0x8C }
  - { offsetInCU: 0xDF8, offset: 0xDF8, size: 0x8, addend: 0x0, symName: '__ZL123_logos_method$_ungrouped$UIStatusBarNewUIStyleAttributes$initWithRequest$backgroundColor$foregroundColor$hasBusyBackground$P31UIStatusBarNewUIStyleAttributesP13objc_selectorP11objc_objectS4_S4_b', symObjAddr: 0x56C, symBinAddr: 0x456C, symSize: 0x8C }
  - { offsetInCU: 0xE71, offset: 0xE71, size: 0x8, addend: 0x0, symName: '__ZL75_logos_method$_ungrouped$YTAppColorStyle$setThemeColor$titleColor$animated$P15YTAppColorStyleP13objc_selectorP11objc_objectS4_b', symObjAddr: 0x5F8, symBinAddr: 0x45F8, symSize: 0x9C }
  - { offsetInCU: 0xE9A, offset: 0xE9A, size: 0x8, addend: 0x0, symName: '__ZL75_logos_method$_ungrouped$YTAppColorStyle$setThemeColor$titleColor$animated$P15YTAppColorStyleP13objc_selectorP11objc_objectS4_b', symObjAddr: 0x5F8, symBinAddr: 0x45F8, symSize: 0x9C }
  - { offsetInCU: 0xF00, offset: 0xF00, size: 0x8, addend: 0x0, symName: '__ZL61_logos_method$_ungrouped$YTCollectionView$setBackgroundColor$P16YTCollectionViewP13objc_selectorP11objc_object', symObjAddr: 0x694, symBinAddr: 0x4694, symSize: 0x64 }
  - { offsetInCU: 0xF23, offset: 0xF23, size: 0x8, addend: 0x0, symName: '__ZL61_logos_method$_ungrouped$YTCollectionView$setBackgroundColor$P16YTCollectionViewP13objc_selectorP11objc_object', symObjAddr: 0x694, symBinAddr: 0x4694, symSize: 0x64 }
  - { offsetInCU: 0xF6B, offset: 0xF6B, size: 0x8, addend: 0x0, symName: '__ZL66_logos_method$_ungrouped$YTAsyncCollectionView$setBackgroundColor$P21YTAsyncCollectionViewP13objc_selectorP11objc_object', symObjAddr: 0x6F8, symBinAddr: 0x46F8, symSize: 0x64 }
  - { offsetInCU: 0xF82, offset: 0xF82, size: 0x8, addend: 0x0, symName: '__ZL66_logos_method$_ungrouped$YTAsyncCollectionView$setBackgroundColor$P21YTAsyncCollectionViewP13objc_selectorP11objc_object', symObjAddr: 0x6F8, symBinAddr: 0x46F8, symSize: 0x64 }
  - { offsetInCU: 0xFCA, offset: 0xFCA, size: 0x8, addend: 0x0, symName: '__ZL56_logos_method$_ungrouped$YTVideoView$setBackgroundColor$P11YTVideoViewP13objc_selectorP11objc_object', symObjAddr: 0x75C, symBinAddr: 0x475C, symSize: 0x64 }
  - { offsetInCU: 0xFE1, offset: 0xFE1, size: 0x8, addend: 0x0, symName: '__ZL56_logos_method$_ungrouped$YTVideoView$setBackgroundColor$P11YTVideoViewP13objc_selectorP11objc_object', symObjAddr: 0x75C, symBinAddr: 0x475C, symSize: 0x64 }
  - { offsetInCU: 0x1029, offset: 0x1029, size: 0x8, addend: 0x0, symName: '__ZL70_logos_method$_ungrouped$YTCollectionSeparatorView$setBackgroundColor$P25YTCollectionSeparatorViewP13objc_selectorP11objc_object', symObjAddr: 0x7C0, symBinAddr: 0x47C0, symSize: 0x64 }
  - { offsetInCU: 0x1040, offset: 0x1040, size: 0x8, addend: 0x0, symName: '__ZL70_logos_method$_ungrouped$YTCollectionSeparatorView$setBackgroundColor$P25YTCollectionSeparatorViewP13objc_selectorP11objc_object', symObjAddr: 0x7C0, symBinAddr: 0x47C0, symSize: 0x64 }
  - { offsetInCU: 0x1088, offset: 0x1088, size: 0x8, addend: 0x0, symName: '__ZL65_logos_method$_ungrouped$YTNGWatchMiniBarView$setBackgroundColor$P20YTNGWatchMiniBarViewP13objc_selectorP11objc_object', symObjAddr: 0x824, symBinAddr: 0x4824, symSize: 0x64 }
  - { offsetInCU: 0x109F, offset: 0x109F, size: 0x8, addend: 0x0, symName: '__ZL65_logos_method$_ungrouped$YTNGWatchMiniBarView$setBackgroundColor$P20YTNGWatchMiniBarViewP13objc_selectorP11objc_object', symObjAddr: 0x824, symBinAddr: 0x4824, symSize: 0x64 }
  - { offsetInCU: 0x10E7, offset: 0x10E7, size: 0x8, addend: 0x0, symName: '__ZL63_logos_method$_ungrouped$YTPivotBarItemView$setBackgroundColor$P18YTPivotBarItemViewP13objc_selectorP11objc_object', symObjAddr: 0x888, symBinAddr: 0x4888, symSize: 0x64 }
  - { offsetInCU: 0x10FE, offset: 0x10FE, size: 0x8, addend: 0x0, symName: '__ZL63_logos_method$_ungrouped$YTPivotBarItemView$setBackgroundColor$P18YTPivotBarItemViewP13objc_selectorP11objc_object', symObjAddr: 0x888, symBinAddr: 0x4888, symSize: 0x64 }
  - { offsetInCU: 0x1146, offset: 0x1146, size: 0x8, addend: 0x0, symName: '__ZL56_logos_method$_ungrouped$YTColdConfig$isDarkThemeAllowedP12YTColdConfigP13objc_selector', symObjAddr: 0x8EC, symBinAddr: 0x48EC, symSize: 0x8 }
  - { offsetInCU: 0x115D, offset: 0x115D, size: 0x8, addend: 0x0, symName: '__ZL56_logos_method$_ungrouped$YTColdConfig$isDarkThemeAllowedP12YTColdConfigP13objc_selector', symObjAddr: 0x8EC, symBinAddr: 0x48EC, symSize: 0x8 }
  - { offsetInCU: 0x1191, offset: 0x1191, size: 0x8, addend: 0x0, symName: '__ZL62_logos_method$_ungrouped$YTPermissionsView$setBackgroundColor$P17YTPermissionsViewP13objc_selectorP11objc_object', symObjAddr: 0x8F4, symBinAddr: 0x48F4, symSize: 0x64 }
  - { offsetInCU: 0x11D9, offset: 0x11D9, size: 0x8, addend: 0x0, symName: '__ZL78_logos_method$_ungrouped$YTChannelCreationFormResponseView$setBackgroundColor$P33YTChannelCreationFormResponseViewP13objc_selectorP11objc_object', symObjAddr: 0x958, symBinAddr: 0x4958, symSize: 0x68 }
  - { offsetInCU: 0x11F0, offset: 0x11F0, size: 0x8, addend: 0x0, symName: '__ZL78_logos_method$_ungrouped$YTChannelCreationFormResponseView$setBackgroundColor$P33YTChannelCreationFormResponseViewP13objc_selectorP11objc_object', symObjAddr: 0x958, symBinAddr: 0x4958, symSize: 0x68 }
  - { offsetInCU: 0x1238, offset: 0x1238, size: 0x8, addend: 0x0, symName: '__ZL66_logos_method$_ungrouped$GOOTransitionableView$setBackgroundColor$P21GOOTransitionableViewP13objc_selectorP11objc_object', symObjAddr: 0x9C0, symBinAddr: 0x49C0, symSize: 0x64 }
  - { offsetInCU: 0x124F, offset: 0x124F, size: 0x8, addend: 0x0, symName: '__ZL66_logos_method$_ungrouped$GOOTransitionableView$setBackgroundColor$P21GOOTransitionableViewP13objc_selectorP11objc_object', symObjAddr: 0x9C0, symBinAddr: 0x49C0, symSize: 0x64 }
  - { offsetInCU: 0x1297, offset: 0x1297, size: 0x8, addend: 0x0, symName: '__ZL63_logos_method$_ungrouped$YTInlineSignInView$setBackgroundColor$P18YTInlineSignInViewP13objc_selectorP11objc_object', symObjAddr: 0xA24, symBinAddr: 0x4A24, symSize: 0x64 }
  - { offsetInCU: 0x12AE, offset: 0x12AE, size: 0x8, addend: 0x0, symName: '__ZL63_logos_method$_ungrouped$YTInlineSignInView$setBackgroundColor$P18YTInlineSignInViewP13objc_selectorP11objc_object', symObjAddr: 0xA24, symBinAddr: 0x4A24, symSize: 0x64 }
  - { offsetInCU: 0x12F6, offset: 0x12F6, size: 0x8, addend: 0x0, symName: '__ZL62_logos_method$_ungrouped$QTMCollectionView$setBackgroundColor$P17QTMCollectionViewP13objc_selectorP11objc_object', symObjAddr: 0xA88, symBinAddr: 0x4A88, symSize: 0x64 }
  - { offsetInCU: 0x130D, offset: 0x130D, size: 0x8, addend: 0x0, symName: '__ZL62_logos_method$_ungrouped$QTMCollectionView$setBackgroundColor$P17QTMCollectionViewP13objc_selectorP11objc_object', symObjAddr: 0xA88, symBinAddr: 0x4A88, symSize: 0x64 }
  - { offsetInCU: 0x1355, offset: 0x1355, size: 0x8, addend: 0x0, symName: '__ZL59_logos_method$_ungrouped$YTSettingsCell$setBackgroundColor$P14YTSettingsCellP13objc_selectorP11objc_object', symObjAddr: 0xAEC, symBinAddr: 0x4AEC, symSize: 0x64 }
  - { offsetInCU: 0x136C, offset: 0x136C, size: 0x8, addend: 0x0, symName: '__ZL59_logos_method$_ungrouped$YTSettingsCell$setBackgroundColor$P14YTSettingsCellP13objc_selectorP11objc_object', symObjAddr: 0xAEC, symBinAddr: 0x4AEC, symSize: 0x64 }
  - { offsetInCU: 0x13B4, offset: 0x13B4, size: 0x8, addend: 0x0, symName: '__ZL57_logos_method$_ungrouped$YTNavigationBar$setBarTintColor$P15YTNavigationBarP13objc_selectorP11objc_object', symObjAddr: 0xB50, symBinAddr: 0x4B50, symSize: 0x64 }
  - { offsetInCU: 0x13CB, offset: 0x13CB, size: 0x8, addend: 0x0, symName: '__ZL57_logos_method$_ungrouped$YTNavigationBar$setBarTintColor$P15YTNavigationBarP13objc_selectorP11objc_object', symObjAddr: 0xB50, symBinAddr: 0x4B50, symSize: 0x64 }
  - { offsetInCU: 0x1413, offset: 0x1413, size: 0x8, addend: 0x0, symName: '__ZL59_logos_method$_ungrouped$GOOPopoverView$setBackgroundColor$P14GOOPopoverViewP13objc_selectorP11objc_object', symObjAddr: 0xBB4, symBinAddr: 0x4BB4, symSize: 0x64 }
  - { offsetInCU: 0x142A, offset: 0x142A, size: 0x8, addend: 0x0, symName: '__ZL59_logos_method$_ungrouped$GOOPopoverView$setBackgroundColor$P14GOOPopoverViewP13objc_selectorP11objc_object', symObjAddr: 0xBB4, symBinAddr: 0x4BB4, symSize: 0x64 }
  - { offsetInCU: 0x1472, offset: 0x1472, size: 0x8, addend: 0x0, symName: '__ZL58_logos_method$_ungrouped$GOODialogView$setBackgroundColor$P13GOODialogViewP13objc_selectorP11objc_object', symObjAddr: 0xC18, symBinAddr: 0x4C18, symSize: 0x64 }
  - { offsetInCU: 0x1489, offset: 0x1489, size: 0x8, addend: 0x0, symName: '__ZL58_logos_method$_ungrouped$GOODialogView$setBackgroundColor$P13GOODialogViewP13objc_selectorP11objc_object', symObjAddr: 0xC18, symBinAddr: 0x4C18, symSize: 0x64 }
  - { offsetInCU: 0x14D1, offset: 0x14D1, size: 0x8, addend: 0x0, symName: '__ZL64_logos_method$_ungrouped$GOODialogView$setActionButtonIconColor$P13GOODialogViewP13objc_selectorP11objc_object', symObjAddr: 0xC7C, symBinAddr: 0x4C7C, symSize: 0x68 }
  - { offsetInCU: 0x14E8, offset: 0x14E8, size: 0x8, addend: 0x0, symName: '__ZL64_logos_method$_ungrouped$GOODialogView$setActionButtonIconColor$P13GOODialogViewP13objc_selectorP11objc_object', symObjAddr: 0xC7C, symBinAddr: 0x4C7C, symSize: 0x68 }
  - { offsetInCU: 0x1530, offset: 0x1530, size: 0x8, addend: 0x0, symName: '__ZL65_logos_method$_ungrouped$GOODialogView$setActionButtonTitleColor$P13GOODialogViewP13objc_selectorP11objc_object', symObjAddr: 0xCE4, symBinAddr: 0x4CE4, symSize: 0x64 }
  - { offsetInCU: 0x1547, offset: 0x1547, size: 0x8, addend: 0x0, symName: '__ZL65_logos_method$_ungrouped$GOODialogView$setActionButtonTitleColor$P13GOODialogViewP13objc_selectorP11objc_object', symObjAddr: 0xCE4, symBinAddr: 0x4CE4, symSize: 0x64 }
  - { offsetInCU: 0x158F, offset: 0x158F, size: 0x8, addend: 0x0, symName: '__ZL66_logos_method$_ungrouped$GOODialogActionButton$setBackgroundColor$P21GOODialogActionButtonP13objc_selectorP11objc_object', symObjAddr: 0xD48, symBinAddr: 0x4D48, symSize: 0x64 }
  - { offsetInCU: 0x15A6, offset: 0x15A6, size: 0x8, addend: 0x0, symName: '__ZL66_logos_method$_ungrouped$GOODialogActionButton$setBackgroundColor$P21GOODialogActionButtonP13objc_selectorP11objc_object', symObjAddr: 0xD48, symBinAddr: 0x4D48, symSize: 0x64 }
  - { offsetInCU: 0x15EE, offset: 0x15EE, size: 0x8, addend: 0x0, symName: '__ZL61_logos_method$_ungrouped$YTShareTitleView$setBackgroundColor$P16YTShareTitleViewP13objc_selectorP11objc_object', symObjAddr: 0xDAC, symBinAddr: 0x4DAC, symSize: 0x64 }
  - { offsetInCU: 0x1605, offset: 0x1605, size: 0x8, addend: 0x0, symName: '__ZL61_logos_method$_ungrouped$YTShareTitleView$setBackgroundColor$P16YTShareTitleViewP13objc_selectorP11objc_object', symObjAddr: 0xDAC, symBinAddr: 0x4DAC, symSize: 0x64 }
  - { offsetInCU: 0x164D, offset: 0x164D, size: 0x8, addend: 0x0, symName: '__ZL66_logos_method$_ungrouped$YTSharePanelPromoView$setBackgroundColor$P21YTSharePanelPromoViewP13objc_selectorP11objc_object', symObjAddr: 0xE10, symBinAddr: 0x4E10, symSize: 0x64 }
  - { offsetInCU: 0x1664, offset: 0x1664, size: 0x8, addend: 0x0, symName: '__ZL66_logos_method$_ungrouped$YTSharePanelPromoView$setBackgroundColor$P21YTSharePanelPromoViewP13objc_selectorP11objc_object', symObjAddr: 0xE10, symBinAddr: 0x4E10, symSize: 0x64 }
  - { offsetInCU: 0x16AC, offset: 0x16AC, size: 0x8, addend: 0x0, symName: '__ZL53_logos_method$_ungrouped$YTButton$setBackgroundColor$P8YTButtonP13objc_selectorP11objc_object', symObjAddr: 0xE74, symBinAddr: 0x4E74, symSize: 0x64 }
  - { offsetInCU: 0x16C3, offset: 0x16C3, size: 0x8, addend: 0x0, symName: '__ZL53_logos_method$_ungrouped$YTButton$setBackgroundColor$P8YTButtonP13objc_selectorP11objc_object', symObjAddr: 0xE74, symBinAddr: 0x4E74, symSize: 0x64 }
  - { offsetInCU: 0x170B, offset: 0x170B, size: 0x8, addend: 0x0, symName: '__ZL50_logos_method$_ungrouped$QTMSwitch$setOnTintColor$P9QTMSwitchP13objc_selectorP11objc_object', symObjAddr: 0xED8, symBinAddr: 0x4ED8, symSize: 0x70 }
  - { offsetInCU: 0x1722, offset: 0x1722, size: 0x8, addend: 0x0, symName: '__ZL50_logos_method$_ungrouped$QTMSwitch$setOnTintColor$P9QTMSwitchP13objc_selectorP11objc_object', symObjAddr: 0xED8, symBinAddr: 0x4ED8, symSize: 0x70 }
  - { offsetInCU: 0x176A, offset: 0x176A, size: 0x8, addend: 0x0, symName: '__ZL52_logos_method$_ungrouped$QTMSwitch$setOffThumbColor$P9QTMSwitchP13objc_selectorP11objc_object', symObjAddr: 0xF48, symBinAddr: 0x4F48, symSize: 0x68 }
  - { offsetInCU: 0x1781, offset: 0x1781, size: 0x8, addend: 0x0, symName: '__ZL52_logos_method$_ungrouped$QTMSwitch$setOffThumbColor$P9QTMSwitchP13objc_selectorP11objc_object', symObjAddr: 0xF48, symBinAddr: 0x4F48, symSize: 0x68 }
  - { offsetInCU: 0x17C9, offset: 0x17C9, size: 0x8, addend: 0x0, symName: '__ZL52_logos_method$_ungrouped$QTMSwitch$setOffTrackColor$P9QTMSwitchP13objc_selectorP11objc_object', symObjAddr: 0xFB0, symBinAddr: 0x4FB0, symSize: 0x68 }
  - { offsetInCU: 0x17E0, offset: 0x17E0, size: 0x8, addend: 0x0, symName: '__ZL52_logos_method$_ungrouped$QTMSwitch$setOffTrackColor$P9QTMSwitchP13objc_selectorP11objc_object', symObjAddr: 0xFB0, symBinAddr: 0x4FB0, symSize: 0x68 }
  - { offsetInCU: 0x1828, offset: 0x1828, size: 0x8, addend: 0x0, symName: '__ZL55_logos_method$_ungrouped$UIKBRenderConfig$lightKeyboardP16UIKBRenderConfigP13objc_selector', symObjAddr: 0x1018, symBinAddr: 0x5018, symSize: 0x8 }
  - { offsetInCU: 0x183F, offset: 0x183F, size: 0x8, addend: 0x0, symName: '__ZL55_logos_method$_ungrouped$UIKBRenderConfig$lightKeyboardP16UIKBRenderConfigP13objc_selector', symObjAddr: 0x1018, symBinAddr: 0x5018, symSize: 0x8 }
  - { offsetInCU: 0x1873, offset: 0x1873, size: 0x8, addend: 0x0, symName: '__ZL58_logos_method$_ungrouped$UIDevice$_keyboardGraphicsQualityP8UIDeviceP13objc_selector', symObjAddr: 0x1020, symBinAddr: 0x5020, symSize: 0x8 }
  - { offsetInCU: 0x18A7, offset: 0x18A7, size: 0x8, addend: 0x0, symName: '__ZL61_logos_method$_ungrouped$YTTopAlignedView$setBackgroundColor$P16YTTopAlignedViewP13objc_selectorP11objc_object', symObjAddr: 0x1028, symBinAddr: 0x5028, symSize: 0x64 }
...
