---
triple:          'arm64e-apple-darwin'
binary-path:     '/Users/az/Desktop/sinfool/Sandbox5/ColorCustomierv241/.theos/obj/arm64e/ColorCustomierv241.dylib'
relocations:
  - { offsetInCU: 0x1E, offset: 0x1E, size: 0x8, addend: 0x0, symName: __ZL24_logosLocalCtor_e6244da5iPPcS0_, symObjAddr: 0x0, symBinAddr: 0x4000, symSize: 0x318 }
  - { offsetInCU: 0x4A, offset: 0x4A, size: 0x8, addend: 0x0, symName: '__ZL103_logos_orig$_ungrouped$UIStatusBarNewUIStyleAttributes$initWithRequest$backgroundColor$foregroundColor$', symObjAddr: 0xBC58, symBinAddr: 0xC078, symSize: 0x0 }
  - { offsetInCU: 0xCE, offset: 0xCE, size: 0x8, addend: 0x0, symName: '__ZL55_logos_orig$_ungrouped$UINavigationBar$setBarTintColor$', symObjAddr: 0xBC60, symBinAddr: 0xC080, symSize: 0x0 }
  - { offsetInCU: 0x2980, offset: 0x2980, size: 0x8, addend: 0x0, symName: '__ZL52_logos_orig$_ungrouped$UINavigationBar$setTintColor$', symObjAddr: 0xBC68, symBinAddr: 0xC088, symSize: 0x0 }
  - { offsetInCU: 0x2999, offset: 0x2999, size: 0x8, addend: 0x0, symName: '__ZL53_logos_orig$_ungrouped$UIButtonContent$setImageColor$', symObjAddr: 0xBC70, symBinAddr: 0xC090, symSize: 0x0 }
  - { offsetInCU: 0x29D3, offset: 0x29D3, size: 0x8, addend: 0x0, symName: '__ZL71_logos_orig$_ungrouped$beamPatchedSwiftClassNameButtonBar$setTintColor$', symObjAddr: 0xBC78, symBinAddr: 0xC098, symSize: 0x0 }
  - { offsetInCU: 0x2A02, offset: 0x2A02, size: 0x8, addend: 0x0, symName: '__ZL81_logos_orig$_ungrouped$beamPatchedSwiftClassNameScrollableButtonBar$setTintColor$', symObjAddr: 0xBC80, symBinAddr: 0xC0A0, symSize: 0x0 }
  - { offsetInCU: 0x2A1B, offset: 0x2A1B, size: 0x8, addend: 0x0, symName: '__ZL70_logos_orig$_ungrouped$_UITableViewHeaderFooterViewLabel$setTextColor$', symObjAddr: 0xBC88, symBinAddr: 0xC0A8, symSize: 0x0 }
  - { offsetInCU: 0x2A55, offset: 0x2A55, size: 0x8, addend: 0x0, symName: '__ZL54_logos_orig$_ungrouped$UITableViewIndex$setIndexColor$', symObjAddr: 0xBC90, symBinAddr: 0xC0B0, symSize: 0x0 }
  - { offsetInCU: 0x2A8F, offset: 0x2A8F, size: 0x8, addend: 0x0, symName: '__ZL77_logos_orig$_ungrouped$UITabBarButton$_showSelectedIndicator$changeSelection$', symObjAddr: 0xBC98, symBinAddr: 0xC0B8, symSize: 0x0 }
  - { offsetInCU: 0x2ACE, offset: 0x2ACE, size: 0x8, addend: 0x0, symName: '__ZL68_logos_orig$_ungrouped$UITabBarButton$_setContentTintColor$forState$', symObjAddr: 0xBCA0, symBinAddr: 0xC0C0, symSize: 0x0 }
  - { offsetInCU: 0x2B02, offset: 0x2B02, size: 0x8, addend: 0x0, symName: '__ZL55_logos_orig$_ungrouped$UIView$_ancestorDefinesTintColor', symObjAddr: 0xBCA8, symBinAddr: 0xC0C8, symSize: 0x0 }
  - { offsetInCU: 0x2B30, offset: 0x2B30, size: 0x8, addend: 0x0, symName: '__ZL79_logos_orig$_ungrouped$UITableViewCellSelectedBackground$setSelectionTintColor$', symObjAddr: 0xBCB0, symBinAddr: 0xC0D0, symSize: 0x0 }
  - { offsetInCU: 0x2B6A, offset: 0x2B6A, size: 0x8, addend: 0x0, symName: '__ZL78_logos_orig$_ungrouped$beamPatchedSwiftClassNameBeamButton$setBackgroundColor$', symObjAddr: 0xBCB8, symBinAddr: 0xC0D8, symSize: 0x0 }
  - { offsetInCU: 0x2B83, offset: 0x2B83, size: 0x8, addend: 0x0, symName: '__ZL64_logos_orig$_ungrouped$UITextInputTraits$setInsertionPointColor$', symObjAddr: 0xBCC0, symBinAddr: 0xC0E0, symSize: 0x0 }
  - { offsetInCU: 0x2BBD, offset: 0x2BBD, size: 0x8, addend: 0x0, symName: '__ZL61_logos_orig$_ungrouped$UILabel$_setTextColorFollowsTintColor$', symObjAddr: 0xBCC8, symBinAddr: 0xC0E8, symSize: 0x0 }
  - { offsetInCU: 0x2D4C, offset: 0x2D4C, size: 0x8, addend: 0x0, symName: '__ZL44_logos_orig$_ungrouped$UILabel$setTextColor$', symObjAddr: 0xBCD0, symBinAddr: 0xC0F0, symSize: 0x0 }
  - { offsetInCU: 0x2D85, offset: 0x2D85, size: 0x8, addend: 0x0, symName: __ZL24_logosLocalCtor_e6244da5iPPcS0_, symObjAddr: 0x0, symBinAddr: 0x4000, symSize: 0x318 }
  - { offsetInCU: 0x3029, offset: 0x3029, size: 0x8, addend: 0x0, symName: '__ZL105_logos_method$_ungrouped$UIStatusBarNewUIStyleAttributes$initWithRequest$backgroundColor$foregroundColor$P31UIStatusBarNewUIStyleAttributesP13objc_selectorP11objc_objectS4_S4_', symObjAddr: 0x318, symBinAddr: 0x4318, symSize: 0x7C }
  - { offsetInCU: 0x306E, offset: 0x306E, size: 0x8, addend: 0x0, symName: '__ZL105_logos_method$_ungrouped$UIStatusBarNewUIStyleAttributes$initWithRequest$backgroundColor$foregroundColor$P31UIStatusBarNewUIStyleAttributesP13objc_selectorP11objc_objectS4_S4_', symObjAddr: 0x318, symBinAddr: 0x4318, symSize: 0x7C }
  - { offsetInCU: 0x30D8, offset: 0x30D8, size: 0x8, addend: 0x0, symName: '__ZL57_logos_method$_ungrouped$UINavigationBar$setBarTintColor$P15UINavigationBarP13objc_selectorP11objc_object', symObjAddr: 0x394, symBinAddr: 0x4394, symSize: 0x6C }
  - { offsetInCU: 0x30FB, offset: 0x30FB, size: 0x8, addend: 0x0, symName: '__ZL57_logos_method$_ungrouped$UINavigationBar$setBarTintColor$P15UINavigationBarP13objc_selectorP11objc_object', symObjAddr: 0x394, symBinAddr: 0x4394, symSize: 0x6C }
  - { offsetInCU: 0x3143, offset: 0x3143, size: 0x8, addend: 0x0, symName: '__ZL54_logos_method$_ungrouped$UINavigationBar$setTintColor$P15UINavigationBarP13objc_selectorP11objc_object', symObjAddr: 0x400, symBinAddr: 0x4400, symSize: 0x64 }
  - { offsetInCU: 0x315A, offset: 0x315A, size: 0x8, addend: 0x0, symName: '__ZL54_logos_method$_ungrouped$UINavigationBar$setTintColor$P15UINavigationBarP13objc_selectorP11objc_object', symObjAddr: 0x400, symBinAddr: 0x4400, symSize: 0x64 }
  - { offsetInCU: 0x31A2, offset: 0x31A2, size: 0x8, addend: 0x0, symName: '__ZL55_logos_method$_ungrouped$UIButtonContent$setImageColor$P15UIButtonContentP13objc_selectorP11objc_object', symObjAddr: 0x464, symBinAddr: 0x4464, symSize: 0x68 }
  - { offsetInCU: 0x31B9, offset: 0x31B9, size: 0x8, addend: 0x0, symName: '__ZL55_logos_method$_ungrouped$UIButtonContent$setImageColor$P15UIButtonContentP13objc_selectorP11objc_object', symObjAddr: 0x464, symBinAddr: 0x4464, symSize: 0x68 }
  - { offsetInCU: 0x3201, offset: 0x3201, size: 0x8, addend: 0x0, symName: '__ZL73_logos_method$_ungrouped$beamPatchedSwiftClassNameButtonBar$setTintColor$P11objc_objectP13objc_selectorS0_', symObjAddr: 0x4CC, symBinAddr: 0x44CC, symSize: 0x68 }
  - { offsetInCU: 0x3218, offset: 0x3218, size: 0x8, addend: 0x0, symName: '__ZL73_logos_method$_ungrouped$beamPatchedSwiftClassNameButtonBar$setTintColor$P11objc_objectP13objc_selectorS0_', symObjAddr: 0x4CC, symBinAddr: 0x44CC, symSize: 0x68 }
  - { offsetInCU: 0x3260, offset: 0x3260, size: 0x8, addend: 0x0, symName: '__ZL83_logos_method$_ungrouped$beamPatchedSwiftClassNameScrollableButtonBar$setTintColor$P11objc_objectP13objc_selectorS0_', symObjAddr: 0x534, symBinAddr: 0x4534, symSize: 0x68 }
  - { offsetInCU: 0x3277, offset: 0x3277, size: 0x8, addend: 0x0, symName: '__ZL83_logos_method$_ungrouped$beamPatchedSwiftClassNameScrollableButtonBar$setTintColor$P11objc_objectP13objc_selectorS0_', symObjAddr: 0x534, symBinAddr: 0x4534, symSize: 0x68 }
  - { offsetInCU: 0x32BF, offset: 0x32BF, size: 0x8, addend: 0x0, symName: '__ZL72_logos_method$_ungrouped$_UITableViewHeaderFooterViewLabel$setTextColor$P33_UITableViewHeaderFooterViewLabelP13objc_selectorP11objc_object', symObjAddr: 0x59C, symBinAddr: 0x459C, symSize: 0x64 }
  - { offsetInCU: 0x32D6, offset: 0x32D6, size: 0x8, addend: 0x0, symName: '__ZL72_logos_method$_ungrouped$_UITableViewHeaderFooterViewLabel$setTextColor$P33_UITableViewHeaderFooterViewLabelP13objc_selectorP11objc_object', symObjAddr: 0x59C, symBinAddr: 0x459C, symSize: 0x64 }
  - { offsetInCU: 0x331E, offset: 0x331E, size: 0x8, addend: 0x0, symName: '__ZL56_logos_method$_ungrouped$UITableViewIndex$setIndexColor$P16UITableViewIndexP13objc_selectorP11objc_object', symObjAddr: 0x600, symBinAddr: 0x4600, symSize: 0x68 }
  - { offsetInCU: 0x3335, offset: 0x3335, size: 0x8, addend: 0x0, symName: '__ZL56_logos_method$_ungrouped$UITableViewIndex$setIndexColor$P16UITableViewIndexP13objc_selectorP11objc_object', symObjAddr: 0x600, symBinAddr: 0x4600, symSize: 0x68 }
  - { offsetInCU: 0x337D, offset: 0x337D, size: 0x8, addend: 0x0, symName: '__ZL79_logos_method$_ungrouped$UITabBarButton$_showSelectedIndicator$changeSelection$P14UITabBarButtonP13objc_selectorbb', symObjAddr: 0x668, symBinAddr: 0x4668, symSize: 0x14 }
  - { offsetInCU: 0x3394, offset: 0x3394, size: 0x8, addend: 0x0, symName: '__ZL79_logos_method$_ungrouped$UITabBarButton$_showSelectedIndicator$changeSelection$P14UITabBarButtonP13objc_selectorbb', symObjAddr: 0x668, symBinAddr: 0x4668, symSize: 0x14 }
  - { offsetInCU: 0x33E1, offset: 0x33E1, size: 0x8, addend: 0x0, symName: '__ZL70_logos_method$_ungrouped$UITabBarButton$_setContentTintColor$forState$P14UITabBarButtonP13objc_selectorP11objc_objecty', symObjAddr: 0x67C, symBinAddr: 0x467C, symSize: 0x78 }
  - { offsetInCU: 0x3404, offset: 0x3404, size: 0x8, addend: 0x0, symName: '__ZL70_logos_method$_ungrouped$UITabBarButton$_setContentTintColor$forState$P14UITabBarButtonP13objc_selectorP11objc_objecty', symObjAddr: 0x67C, symBinAddr: 0x467C, symSize: 0x78 }
  - { offsetInCU: 0x345B, offset: 0x345B, size: 0x8, addend: 0x0, symName: '__ZL57_logos_method$_ungrouped$UIView$_ancestorDefinesTintColorP6UIViewP13objc_selector', symObjAddr: 0x6F4, symBinAddr: 0x46F4, symSize: 0x8 }
  - { offsetInCU: 0x3478, offset: 0x3478, size: 0x8, addend: 0x0, symName: '__ZL57_logos_method$_ungrouped$UIView$_ancestorDefinesTintColorP6UIViewP13objc_selector', symObjAddr: 0x6F4, symBinAddr: 0x46F4, symSize: 0x8 }
  - { offsetInCU: 0x34AC, offset: 0x34AC, size: 0x8, addend: 0x0, symName: '__ZL81_logos_method$_ungrouped$UITableViewCellSelectedBackground$setSelectionTintColor$P33UITableViewCellSelectedBackgroundP13objc_selectorP11objc_object', symObjAddr: 0x6FC, symBinAddr: 0x46FC, symSize: 0x68 }
  - { offsetInCU: 0x34F4, offset: 0x34F4, size: 0x8, addend: 0x0, symName: '__ZL80_logos_method$_ungrouped$beamPatchedSwiftClassNameBeamButton$setBackgroundColor$P11objc_objectP13objc_selectorS0_', symObjAddr: 0x764, symBinAddr: 0x4764, symSize: 0x68 }
  - { offsetInCU: 0x350B, offset: 0x350B, size: 0x8, addend: 0x0, symName: '__ZL80_logos_method$_ungrouped$beamPatchedSwiftClassNameBeamButton$setBackgroundColor$P11objc_objectP13objc_selectorS0_', symObjAddr: 0x764, symBinAddr: 0x4764, symSize: 0x68 }
  - { offsetInCU: 0x3553, offset: 0x3553, size: 0x8, addend: 0x0, symName: '__ZL66_logos_method$_ungrouped$UITextInputTraits$setInsertionPointColor$P17UITextInputTraitsP13objc_selectorP11objc_object', symObjAddr: 0x7CC, symBinAddr: 0x47CC, symSize: 0x68 }
  - { offsetInCU: 0x356A, offset: 0x356A, size: 0x8, addend: 0x0, symName: '__ZL66_logos_method$_ungrouped$UITextInputTraits$setInsertionPointColor$P17UITextInputTraitsP13objc_selectorP11objc_object', symObjAddr: 0x7CC, symBinAddr: 0x47CC, symSize: 0x68 }
  - { offsetInCU: 0x35B2, offset: 0x35B2, size: 0x8, addend: 0x0, symName: '__ZL63_logos_method$_ungrouped$UILabel$_setTextColorFollowsTintColor$P7UILabelP13objc_selectorb', symObjAddr: 0x834, symBinAddr: 0x4834, symSize: 0x10 }
  - { offsetInCU: 0x35C9, offset: 0x35C9, size: 0x8, addend: 0x0, symName: '__ZL63_logos_method$_ungrouped$UILabel$_setTextColorFollowsTintColor$P7UILabelP13objc_selectorb', symObjAddr: 0x834, symBinAddr: 0x4834, symSize: 0x10 }
  - { offsetInCU: 0x360A, offset: 0x360A, size: 0x8, addend: 0x0, symName: '__ZL46_logos_method$_ungrouped$UILabel$setTextColor$P7UILabelP13objc_selectorP11objc_object', symObjAddr: 0x844, symBinAddr: 0x4844, symSize: 0x68 }
  - { offsetInCU: 0x3628, offset: 0x3628, size: 0x8, addend: 0x0, symName: '__ZL46_logos_method$_ungrouped$UILabel$setTextColor$P7UILabelP13objc_selectorP11objc_object', symObjAddr: 0x844, symBinAddr: 0x4844, symSize: 0x68 }
...
