---
triple:          'arm64-apple-darwin'
binary-path:     '/Users/az/Desktop/sinfool/Sandbox3/FloatingCellsUIThemeiOS10/.theos/obj/arm64/FloatingCellsUIThemeiOS10.dylib'
relocations:
  - { offsetInCU: 0x1E, offset: 0x1E, size: 0x8, addend: 0x0, symName: __ZL15_logosLocalInitv, symObjAddr: 0x0, symBinAddr: 0x4000, symSize: 0x1E4 }
  - { offsetInCU: 0x4A, offset: 0x4A, size: 0x8, addend: 0x0, symName: '__ZL71_logos_orig$_ungrouped$PSSearchController$setSearchBarVisible$animated$', symObjAddr: 0x67C8, symBinAddr: 0xC070, symSize: 0x0 }
  - { offsetInCU: 0xA3, offset: 0xA3, size: 0x8, addend: 0x0, symName: '__ZL85_logos_orig$_ungrouped$UISearchBarBackground$_createBackgroundImageForBarStyle$alpha$', symObjAddr: 0x67D0, symBinAddr: 0xC078, symSize: 0x0 }
  - { offsetInCU: 0x11D, offset: 0x11D, size: 0x8, addend: 0x0, symName: '__ZL82_logos_orig$_ungrouped$PSUIPrefsListController$tableView$heightForHeaderInSection$', symObjAddr: 0x67D8, symBinAddr: 0xC080, symSize: 0x0 }
  - { offsetInCU: 0x160, offset: 0x160, size: 0x8, addend: 0x0, symName: '__ZL54_logos_orig$_ungrouped$UITableView$sectionHeaderHeight', symObjAddr: 0x67E0, symBinAddr: 0xC088, symSize: 0x0 }
  - { offsetInCU: 0x160F, offset: 0x160F, size: 0x8, addend: 0x0, symName: '__ZL54_logos_orig$_ungrouped$UITableView$sectionFooterHeight', symObjAddr: 0x67E8, symBinAddr: 0xC090, symSize: 0x0 }
  - { offsetInCU: 0x1628, offset: 0x1628, size: 0x8, addend: 0x0, symName: '__ZL53_logos_orig$_ungrouped$UITableView$setSeparatorStyle$', symObjAddr: 0x67F0, symBinAddr: 0xC098, symSize: 0x0 }
  - { offsetInCU: 0x1657, offset: 0x1657, size: 0x8, addend: 0x0, symName: '__ZL76_logos_orig$_ungrouped$UIGroupTableViewCellBackground$setSelectionTintColor$', symObjAddr: 0x67F8, symBinAddr: 0xC0A0, symSize: 0x0 }
  - { offsetInCU: 0x1691, offset: 0x1691, size: 0x8, addend: 0x0, symName: '__ZL60_logos_orig$_ungrouped$UITableViewLabel$highlightedTextColor', symObjAddr: 0x6800, symBinAddr: 0xC0A8, symSize: 0x0 }
  - { offsetInCU: 0x16CA, offset: 0x16CA, size: 0x8, addend: 0x0, symName: '__ZL78_logos_orig$_ungrouped$_UIGroupTableViewCellBackgroundImageKey$sectionLocation', symObjAddr: 0x6808, symBinAddr: 0xC0B0, symSize: 0x0 }
  - { offsetInCU: 0x1703, offset: 0x1703, size: 0x8, addend: 0x0, symName: '__ZL85_logos_orig$_ungrouped$_UIGroupTableViewCellBackgroundImageKey$setSectionBorderWidth$', symObjAddr: 0x6810, symBinAddr: 0xC0B8, symSize: 0x0 }
  - { offsetInCU: 0x1732, offset: 0x1732, size: 0x8, addend: 0x0, symName: '__ZL56_logos_orig$_ungrouped$UIDevice$setOrientation$animated$', symObjAddr: 0x6818, symBinAddr: 0xC0C0, symSize: 0x0 }
  - { offsetInCU: 0x1897, offset: 0x1897, size: 0x8, addend: 0x0, symName: '__ZL55_logos_orig$_ungrouped$PSListController$_isRegularWidth', symObjAddr: 0x6820, symBinAddr: 0xC0C8, symSize: 0x0 }
  - { offsetInCU: 0x18DA, offset: 0x18DA, size: 0x8, addend: 0x0, symName: __ZL15_logosLocalInitv, symObjAddr: 0x0, symBinAddr: 0x4000, symSize: 0x1E4 }
  - { offsetInCU: 0x1AA5, offset: 0x1AA5, size: 0x8, addend: 0x0, symName: '__ZL73_logos_method$_ungrouped$PSSearchController$setSearchBarVisible$animated$P18PSSearchControllerP13objc_selectorbb', symObjAddr: 0x1E4, symBinAddr: 0x41E4, symSize: 0x10 }
  - { offsetInCU: 0x1AE2, offset: 0x1AE2, size: 0x8, addend: 0x0, symName: '__ZL73_logos_method$_ungrouped$PSSearchController$setSearchBarVisible$animated$P18PSSearchControllerP13objc_selectorbb', symObjAddr: 0x1E4, symBinAddr: 0x41E4, symSize: 0x10 }
  - { offsetInCU: 0x1B35, offset: 0x1B35, size: 0x8, addend: 0x0, symName: '__ZL87_logos_method$_ungrouped$UISearchBarBackground$_createBackgroundImageForBarStyle$alpha$P21UISearchBarBackgroundP13objc_selectorxd', symObjAddr: 0x1F4, symBinAddr: 0x41F4, symSize: 0x10 }
  - { offsetInCU: 0x1B5A, offset: 0x1B5A, size: 0x8, addend: 0x0, symName: '__ZL87_logos_method$_ungrouped$UISearchBarBackground$_createBackgroundImageForBarStyle$alpha$P21UISearchBarBackgroundP13objc_selectorxd', symObjAddr: 0x1F4, symBinAddr: 0x41F4, symSize: 0x10 }
  - { offsetInCU: 0x1BAC, offset: 0x1BAC, size: 0x8, addend: 0x0, symName: '__ZL84_logos_method$_ungrouped$PSUIPrefsListController$tableView$heightForHeaderInSection$P23PSUIPrefsListControllerP13objc_selectorP11objc_objectx', symObjAddr: 0x204, symBinAddr: 0x4204, symSize: 0x8 }
  - { offsetInCU: 0x1BCC, offset: 0x1BCC, size: 0x8, addend: 0x0, symName: '__ZL84_logos_method$_ungrouped$PSUIPrefsListController$tableView$heightForHeaderInSection$P23PSUIPrefsListControllerP13objc_selectorP11objc_objectx', symObjAddr: 0x204, symBinAddr: 0x4204, symSize: 0x8 }
  - { offsetInCU: 0x1C16, offset: 0x1C16, size: 0x8, addend: 0x0, symName: '__ZL56_logos_method$_ungrouped$UITableView$sectionHeaderHeightP11UITableViewP13objc_selector', symObjAddr: 0x20C, symBinAddr: 0x420C, symSize: 0x8 }
  - { offsetInCU: 0x1C4A, offset: 0x1C4A, size: 0x8, addend: 0x0, symName: '__ZL56_logos_method$_ungrouped$UITableView$sectionFooterHeightP11UITableViewP13objc_selector', symObjAddr: 0x214, symBinAddr: 0x4214, symSize: 0x8 }
  - { offsetInCU: 0x1C7E, offset: 0x1C7E, size: 0x8, addend: 0x0, symName: '__ZL55_logos_method$_ungrouped$UITableView$setSeparatorStyle$P11UITableViewP13objc_selectorx', symObjAddr: 0x21C, symBinAddr: 0x421C, symSize: 0x10 }
  - { offsetInCU: 0x1CBF, offset: 0x1CBF, size: 0x8, addend: 0x0, symName: '__ZL78_logos_method$_ungrouped$UIGroupTableViewCellBackground$setSelectionTintColor$P30UIGroupTableViewCellBackgroundP13objc_selectorP11objc_object', symObjAddr: 0x22C, symBinAddr: 0x422C, symSize: 0x54 }
  - { offsetInCU: 0x1CDD, offset: 0x1CDD, size: 0x8, addend: 0x0, symName: '__ZL78_logos_method$_ungrouped$UIGroupTableViewCellBackground$setSelectionTintColor$P30UIGroupTableViewCellBackgroundP13objc_selectorP11objc_object', symObjAddr: 0x22C, symBinAddr: 0x422C, symSize: 0x54 }
  - { offsetInCU: 0x1D25, offset: 0x1D25, size: 0x8, addend: 0x0, symName: '__ZL62_logos_method$_ungrouped$UITableViewLabel$highlightedTextColorP16UITableViewLabelP13objc_selector', symObjAddr: 0x280, symBinAddr: 0x4280, symSize: 0x1C }
  - { offsetInCU: 0x1D3C, offset: 0x1D3C, size: 0x8, addend: 0x0, symName: '__ZL62_logos_method$_ungrouped$UITableViewLabel$highlightedTextColorP16UITableViewLabelP13objc_selector', symObjAddr: 0x280, symBinAddr: 0x4280, symSize: 0x1C }
  - { offsetInCU: 0x1D70, offset: 0x1D70, size: 0x8, addend: 0x0, symName: '__ZL80_logos_method$_ungrouped$_UIGroupTableViewCellBackgroundImageKey$sectionLocationP39_UIGroupTableViewCellBackgroundImageKeyP13objc_selector', symObjAddr: 0x29C, symBinAddr: 0x429C, symSize: 0x8 }
  - { offsetInCU: 0x1DA4, offset: 0x1DA4, size: 0x8, addend: 0x0, symName: '__ZL87_logos_method$_ungrouped$_UIGroupTableViewCellBackgroundImageKey$setSectionBorderWidth$P39_UIGroupTableViewCellBackgroundImageKeyP13objc_selectord', symObjAddr: 0x2A4, symBinAddr: 0x42A4, symSize: 0x10 }
  - { offsetInCU: 0x1DED, offset: 0x1DED, size: 0x8, addend: 0x0, symName: '__ZL58_logos_method$_ungrouped$UIDevice$setOrientation$animated$P8UIDeviceP13objc_selectorxb', symObjAddr: 0x2B4, symBinAddr: 0x42B4, symSize: 0x10 }
  - { offsetInCU: 0x1E06, offset: 0x1E06, size: 0x8, addend: 0x0, symName: '__ZL58_logos_method$_ungrouped$UIDevice$setOrientation$animated$P8UIDeviceP13objc_selectorxb', symObjAddr: 0x2B4, symBinAddr: 0x42B4, symSize: 0x10 }
  - { offsetInCU: 0x1E54, offset: 0x1E54, size: 0x8, addend: 0x0, symName: '__ZL57_logos_method$_ungrouped$PSListController$_isRegularWidthP16PSListControllerP13objc_selector', symObjAddr: 0x2C4, symBinAddr: 0x42C4, symSize: 0x8 }
  - { offsetInCU: 0x1E79, offset: 0x1E79, size: 0x8, addend: 0x0, symName: '__ZL57_logos_method$_ungrouped$PSListController$_isRegularWidthP16PSListControllerP13objc_selector', symObjAddr: 0x2C4, symBinAddr: 0x42C4, symSize: 0x8 }
...
