---
triple:          'arm64e-apple-darwin'
binary-path:     '/Users/az/Desktop/sinfool/Sandbox0/KBLockKeyboardBlack/.theos/obj/arm64e/KBLockKeyboardBlack.dylib'
relocations:
  - { offsetInCU: 0x1E, offset: 0x1E, size: 0x8, addend: 0x0, symName: __ZL15_logosLocalInitv, symObjAddr: 0x0, symBinAddr: 0x4000, symSize: 0x1A4 }
  - { offsetInCU: 0x4A, offset: 0x4A, size: 0x8, addend: 0x0, symName: '__ZL56_logos_orig$_ungrouped$UIKBRenderFactory$boldTextEnabled', symObjAddr: 0x2098, symBinAddr: 0xC040, symSize: 0x0 }
  - { offsetInCU: 0x9D, offset: 0x9D, size: 0x8, addend: 0x0, symName: '__ZL65_logos_orig$_ungrouped$UITextInputTraits$suppressReturnKeyStyling', symObjAddr: 0x20A0, symBinAddr: 0xC048, symSize: 0x0 }
  - { offsetInCU: 0xD6, offset: 0xD6, size: 0x8, addend: 0x0, symName: '__ZL53_logos_orig$_ungrouped$UIKBRenderTraits$setBlendForm$', symObjAddr: 0x20A8, symBinAddr: 0xC050, symSize: 0x0 }
  - { offsetInCU: 0x117, offset: 0x117, size: 0x8, addend: 0x0, symName: '__ZL47_logos_orig$_ungrouped$UIKBTree$setVisualStyle$', symObjAddr: 0x20B0, symBinAddr: 0xC058, symSize: 0x0 }
  - { offsetInCU: 0x158, offset: 0x158, size: 0x8, addend: 0x0, symName: '__ZL52_logos_orig$_ungrouped$UIKBTextStyle$setTextOpacity$', symObjAddr: 0x20B8, symBinAddr: 0xC060, symSize: 0x0 }
  - { offsetInCU: 0x199, offset: 0x199, size: 0x8, addend: 0x0, symName: '__ZL57_logos_orig$_ungrouped$UIKBRenderConfig$setKeycapOpacity$', symObjAddr: 0x20C0, symBinAddr: 0xC068, symSize: 0x0 }
  - { offsetInCU: 0x1D3, offset: 0x1D3, size: 0x8, addend: 0x0, symName: '__ZL57_logos_orig$_ungrouped$UIKBRenderConfig$setLightKeyboard$', symObjAddr: 0x20C8, symBinAddr: 0xC070, symSize: 0x0 }
  - { offsetInCU: 0x202, offset: 0x202, size: 0x8, addend: 0x0, symName: '__ZL56_logos_orig$_ungrouped$UIDevice$_keyboardGraphicsQuality', symObjAddr: 0x20D0, symBinAddr: 0xC078, symSize: 0x0 }
  - { offsetInCU: 0x3ED, offset: 0x3ED, size: 0x8, addend: 0x0, symName: __ZL15_logosLocalInitv, symObjAddr: 0x0, symBinAddr: 0x4000, symSize: 0x1A4 }
  - { offsetInCU: 0x53E, offset: 0x53E, size: 0x8, addend: 0x0, symName: '__ZL58_logos_method$_ungrouped$UIKBRenderFactory$boldTextEnabledP17UIKBRenderFactoryP13objc_selector', symObjAddr: 0x1A4, symBinAddr: 0x41A4, symSize: 0x8 }
  - { offsetInCU: 0x57B, offset: 0x57B, size: 0x8, addend: 0x0, symName: '__ZL58_logos_method$_ungrouped$UIKBRenderFactory$boldTextEnabledP17UIKBRenderFactoryP13objc_selector', symObjAddr: 0x1A4, symBinAddr: 0x41A4, symSize: 0x8 }
  - { offsetInCU: 0x5AF, offset: 0x5AF, size: 0x8, addend: 0x0, symName: '__ZL67_logos_method$_ungrouped$UITextInputTraits$suppressReturnKeyStylingP17UITextInputTraitsP13objc_selector', symObjAddr: 0x1AC, symBinAddr: 0x41AC, symSize: 0x8 }
  - { offsetInCU: 0x5E3, offset: 0x5E3, size: 0x8, addend: 0x0, symName: '__ZL55_logos_method$_ungrouped$UIKBRenderTraits$setBlendForm$P16UIKBRenderTraitsP13objc_selectorx', symObjAddr: 0x1B4, symBinAddr: 0x41B4, symSize: 0x10 }
  - { offsetInCU: 0x624, offset: 0x624, size: 0x8, addend: 0x0, symName: '__ZL49_logos_method$_ungrouped$UIKBTree$setVisualStyle$P8UIKBTreeP13objc_selectori', symObjAddr: 0x1C4, symBinAddr: 0x41C4, symSize: 0x10 }
  - { offsetInCU: 0x642, offset: 0x642, size: 0x8, addend: 0x0, symName: '__ZL49_logos_method$_ungrouped$UIKBTree$setVisualStyle$P8UIKBTreeP13objc_selectori', symObjAddr: 0x1C4, symBinAddr: 0x41C4, symSize: 0x10 }
  - { offsetInCU: 0x683, offset: 0x683, size: 0x8, addend: 0x0, symName: '__ZL54_logos_method$_ungrouped$UIKBTextStyle$setTextOpacity$P13UIKBTextStyleP13objc_selectord', symObjAddr: 0x1D4, symBinAddr: 0x41D4, symSize: 0x14 }
  - { offsetInCU: 0x6A1, offset: 0x6A1, size: 0x8, addend: 0x0, symName: '__ZL54_logos_method$_ungrouped$UIKBTextStyle$setTextOpacity$P13UIKBTextStyleP13objc_selectord', symObjAddr: 0x1D4, symBinAddr: 0x41D4, symSize: 0x14 }
  - { offsetInCU: 0x6EA, offset: 0x6EA, size: 0x8, addend: 0x0, symName: '__ZL59_logos_method$_ungrouped$UIKBRenderConfig$setKeycapOpacity$P16UIKBRenderConfigP13objc_selectord', symObjAddr: 0x1E8, symBinAddr: 0x41E8, symSize: 0x10 }
  - { offsetInCU: 0x703, offset: 0x703, size: 0x8, addend: 0x0, symName: '__ZL59_logos_method$_ungrouped$UIKBRenderConfig$setKeycapOpacity$P16UIKBRenderConfigP13objc_selectord', symObjAddr: 0x1E8, symBinAddr: 0x41E8, symSize: 0x10 }
  - { offsetInCU: 0x74C, offset: 0x74C, size: 0x8, addend: 0x0, symName: '__ZL59_logos_method$_ungrouped$UIKBRenderConfig$setLightKeyboard$P16UIKBRenderConfigP13objc_selectorb', symObjAddr: 0x1F8, symBinAddr: 0x41F8, symSize: 0x10 }
  - { offsetInCU: 0x765, offset: 0x765, size: 0x8, addend: 0x0, symName: '__ZL59_logos_method$_ungrouped$UIKBRenderConfig$setLightKeyboard$P16UIKBRenderConfigP13objc_selectorb', symObjAddr: 0x1F8, symBinAddr: 0x41F8, symSize: 0x10 }
  - { offsetInCU: 0x7A6, offset: 0x7A6, size: 0x8, addend: 0x0, symName: '__ZL58_logos_method$_ungrouped$UIDevice$_keyboardGraphicsQualityP8UIDeviceP13objc_selector', symObjAddr: 0x208, symBinAddr: 0x4208, symSize: 0x8 }
  - { offsetInCU: 0x7C4, offset: 0x7C4, size: 0x8, addend: 0x0, symName: '__ZL58_logos_method$_ungrouped$UIDevice$_keyboardGraphicsQualityP8UIDeviceP13objc_selector', symObjAddr: 0x208, symBinAddr: 0x4208, symSize: 0x8 }
...
