---
triple:          'arm64e-apple-darwin'
binary-path:     '/Users/az/Desktop/sinfool/Sandbox7/AlertsAIOCustomier/.theos/obj/arm64e/AlertsAIOCustomier.dylib'
relocations:
  - { offsetInCU: 0x1E, offset: 0x1E, size: 0x8, addend: 0x0, symName: __ZL15_logosLocalInitv, symObjAddr: 0x0, symBinAddr: 0x4000, symSize: 0x280 }
  - { offsetInCU: 0x4A, offset: 0x4A, size: 0x8, addend: 0x0, symName: '__ZL75_logos_orig$_ungrouped$_UIAlertControllerCarBackgroundView$setCornerRadius$', symObjAddr: 0x5B48, symBinAddr: 0xC070, symSize: 0x0 }
  - { offsetInCU: 0x9E, offset: 0x9E, size: 0x8, addend: 0x0, symName: '__ZL78_logos_orig$_ungrouped$_UIAlertControllerCarBackgroundView$setBackgroundColor$', symObjAddr: 0x5B50, symBinAddr: 0xC078, symSize: 0x0 }
  - { offsetInCU: 0xF6, offset: 0xF6, size: 0x8, addend: 0x0, symName: '__ZL55_logos_orig$_ungrouped$UIAlertController$preferredStyle', symObjAddr: 0x5B58, symBinAddr: 0xC080, symSize: 0x0 }
  - { offsetInCU: 0x107D, offset: 0x107D, size: 0x8, addend: 0x0, symName: '__ZL73_logos_orig$_ungrouped$UIAlertController$_canDismissWithGestureRecognizer', symObjAddr: 0x5B60, symBinAddr: 0xC088, symSize: 0x0 }
  - { offsetInCU: 0x10AB, offset: 0x10AB, size: 0x8, addend: 0x0, symName: '__ZL68_logos_orig$_ungrouped$_UIAlertControllerView$shouldHaveBackdropView', symObjAddr: 0x5B68, symBinAddr: 0xC090, symSize: 0x0 }
  - { offsetInCU: 0x10E4, offset: 0x10E4, size: 0x8, addend: 0x0, symName: '__ZL63_logos_orig$_ungrouped$_UIAlertControllerView$showsCancelAction', symObjAddr: 0x5B70, symBinAddr: 0xC098, symSize: 0x0 }
  - { offsetInCU: 0x10FD, offset: 0x10FD, size: 0x8, addend: 0x0, symName: '__ZL72_logos_orig$_ungrouped$_UIAlertControllerView$setCancelActionIsDiscrete$', symObjAddr: 0x5B78, symBinAddr: 0xC0A0, symSize: 0x0 }
  - { offsetInCU: 0x112C, offset: 0x112C, size: 0x8, addend: 0x0, symName: '__ZL72_logos_orig$_ungrouped$UIAlertControllerVisualStyle$hideActionSeparators', symObjAddr: 0x5B80, symBinAddr: 0xC0A8, symSize: 0x0 }
  - { offsetInCU: 0x1165, offset: 0x1165, size: 0x8, addend: 0x0, symName: '__ZL92_logos_orig$_ungrouped$UIAlertControllerVisualStyleAlertCar$maximumNumberOfLinesInTitleLabel', symObjAddr: 0x5B88, symBinAddr: 0xC0B0, symSize: 0x0 }
  - { offsetInCU: 0x119E, offset: 0x119E, size: 0x8, addend: 0x0, symName: '__ZL94_logos_orig$_ungrouped$UIAlertControllerVisualStyleAlertCar$maximumNumberOfLinesInMessageLabel', symObjAddr: 0x5B90, symBinAddr: 0xC0B8, symSize: 0x0 }
  - { offsetInCU: 0x11B7, offset: 0x11B7, size: 0x8, addend: 0x0, symName: '__ZL98_logos_orig$_ungrouped$UIAlertControllerVisualStyleActionSheetCar$maximumNumberOfLinesInTitleLabel', symObjAddr: 0x5B98, symBinAddr: 0xC0C0, symSize: 0x0 }
  - { offsetInCU: 0x11F0, offset: 0x11F0, size: 0x8, addend: 0x0, symName: '__ZL59_logos_orig$_ungrouped$UITraitCollection$userInterfaceIdiom', symObjAddr: 0x5BA0, symBinAddr: 0xC0C8, symSize: 0x0 }
  - { offsetInCU: 0x133D, offset: 0x133D, size: 0x8, addend: 0x0, symName: '__ZL70_logos_orig$_ungrouped$UINavigationButton$_isExternalRoundedRectButton', symObjAddr: 0x5BA8, symBinAddr: 0xC0D0, symSize: 0x0 }
  - { offsetInCU: 0x1380, offset: 0x1380, size: 0x8, addend: 0x0, symName: __ZL15_logosLocalInitv, symObjAddr: 0x0, symBinAddr: 0x4000, symSize: 0x280 }
  - { offsetInCU: 0x1558, offset: 0x1558, size: 0x8, addend: 0x0, symName: '__ZL77_logos_method$_ungrouped$_UIAlertControllerCarBackgroundView$setCornerRadius$P35_UIAlertControllerCarBackgroundViewP13objc_selectorf', symObjAddr: 0x280, symBinAddr: 0x4280, symSize: 0x10 }
  - { offsetInCU: 0x1590, offset: 0x1590, size: 0x8, addend: 0x0, symName: '__ZL77_logos_method$_ungrouped$_UIAlertControllerCarBackgroundView$setCornerRadius$P35_UIAlertControllerCarBackgroundViewP13objc_selectorf', symObjAddr: 0x280, symBinAddr: 0x4280, symSize: 0x10 }
  - { offsetInCU: 0x15D5, offset: 0x15D5, size: 0x8, addend: 0x0, symName: '__ZL80_logos_method$_ungrouped$_UIAlertControllerCarBackgroundView$setBackgroundColor$P35_UIAlertControllerCarBackgroundViewP13objc_selectorP11objc_object', symObjAddr: 0x290, symBinAddr: 0x4290, symSize: 0x68 }
  - { offsetInCU: 0x15EE, offset: 0x15EE, size: 0x8, addend: 0x0, symName: '__ZL80_logos_method$_ungrouped$_UIAlertControllerCarBackgroundView$setBackgroundColor$P35_UIAlertControllerCarBackgroundViewP13objc_selectorP11objc_object', symObjAddr: 0x290, symBinAddr: 0x4290, symSize: 0x68 }
  - { offsetInCU: 0x1636, offset: 0x1636, size: 0x8, addend: 0x0, symName: '__ZL57_logos_method$_ungrouped$UIAlertController$preferredStyleP17UIAlertControllerP13objc_selector', symObjAddr: 0x2F8, symBinAddr: 0x42F8, symSize: 0x8 }
  - { offsetInCU: 0x164D, offset: 0x164D, size: 0x8, addend: 0x0, symName: '__ZL57_logos_method$_ungrouped$UIAlertController$preferredStyleP17UIAlertControllerP13objc_selector', symObjAddr: 0x2F8, symBinAddr: 0x42F8, symSize: 0x8 }
  - { offsetInCU: 0x1681, offset: 0x1681, size: 0x8, addend: 0x0, symName: '__ZL75_logos_method$_ungrouped$UIAlertController$_canDismissWithGestureRecognizerP17UIAlertControllerP13objc_selector', symObjAddr: 0x300, symBinAddr: 0x4300, symSize: 0x8 }
  - { offsetInCU: 0x16B5, offset: 0x16B5, size: 0x8, addend: 0x0, symName: '__ZL70_logos_method$_ungrouped$_UIAlertControllerView$shouldHaveBackdropViewP22_UIAlertControllerViewP13objc_selector', symObjAddr: 0x308, symBinAddr: 0x4308, symSize: 0x8 }
  - { offsetInCU: 0x16E9, offset: 0x16E9, size: 0x8, addend: 0x0, symName: '__ZL65_logos_method$_ungrouped$_UIAlertControllerView$showsCancelActionP22_UIAlertControllerViewP13objc_selector', symObjAddr: 0x310, symBinAddr: 0x4310, symSize: 0x8 }
  - { offsetInCU: 0x171D, offset: 0x171D, size: 0x8, addend: 0x0, symName: '__ZL74_logos_method$_ungrouped$_UIAlertControllerView$setCancelActionIsDiscrete$P22_UIAlertControllerViewP13objc_selectorb', symObjAddr: 0x318, symBinAddr: 0x4318, symSize: 0x10 }
  - { offsetInCU: 0x175E, offset: 0x175E, size: 0x8, addend: 0x0, symName: '__ZL74_logos_method$_ungrouped$UIAlertControllerVisualStyle$hideActionSeparatorsP28UIAlertControllerVisualStyleP13objc_selector', symObjAddr: 0x328, symBinAddr: 0x4328, symSize: 0x8 }
  - { offsetInCU: 0x177C, offset: 0x177C, size: 0x8, addend: 0x0, symName: '__ZL74_logos_method$_ungrouped$UIAlertControllerVisualStyle$hideActionSeparatorsP28UIAlertControllerVisualStyleP13objc_selector', symObjAddr: 0x328, symBinAddr: 0x4328, symSize: 0x8 }
  - { offsetInCU: 0x17B0, offset: 0x17B0, size: 0x8, addend: 0x0, symName: '__ZL94_logos_method$_ungrouped$UIAlertControllerVisualStyleAlertCar$maximumNumberOfLinesInTitleLabelP36UIAlertControllerVisualStyleAlertCarP13objc_selector', symObjAddr: 0x330, symBinAddr: 0x4330, symSize: 0x8 }
  - { offsetInCU: 0x17E4, offset: 0x17E4, size: 0x8, addend: 0x0, symName: '__ZL96_logos_method$_ungrouped$UIAlertControllerVisualStyleAlertCar$maximumNumberOfLinesInMessageLabelP36UIAlertControllerVisualStyleAlertCarP13objc_selector', symObjAddr: 0x338, symBinAddr: 0x4338, symSize: 0x8 }
  - { offsetInCU: 0x1818, offset: 0x1818, size: 0x8, addend: 0x0, symName: '__ZL100_logos_method$_ungrouped$UIAlertControllerVisualStyleActionSheetCar$maximumNumberOfLinesInTitleLabelP42UIAlertControllerVisualStyleActionSheetCarP13objc_selector', symObjAddr: 0x340, symBinAddr: 0x4340, symSize: 0x8 }
  - { offsetInCU: 0x184C, offset: 0x184C, size: 0x8, addend: 0x0, symName: '__ZL61_logos_method$_ungrouped$UITraitCollection$userInterfaceIdiomP17UITraitCollectionP13objc_selector', symObjAddr: 0x348, symBinAddr: 0x4348, symSize: 0x8 }
  - { offsetInCU: 0x1880, offset: 0x1880, size: 0x8, addend: 0x0, symName: '__ZL72_logos_method$_ungrouped$UINavigationButton$_isExternalRoundedRectButtonP18UINavigationButtonP13objc_selector', symObjAddr: 0x350, symBinAddr: 0x4350, symSize: 0x8 }
...
