---
triple:          'arm64-apple-darwin'
binary-path:     '/Users/az/Desktop/sinfool/Sandbox7/SpotlightAIOCustomier/.theos/obj/arm64/SpotlightAIOCustomier.dylib'
relocations:
  - { offsetInCU: 0x1E, offset: 0x1E, size: 0x8, addend: 0x0, symName: __ZL15_logosLocalInitv, symObjAddr: 0x0, symBinAddr: 0x4000, symSize: 0x1E0 }
  - { offsetInCU: 0x4A, offset: 0x4A, size: 0x8, addend: 0x0, symName: '__ZL66_logos_orig$_ungrouped$SBSearchBackdropView$useHighQualityGraphics', symObjAddr: 0x8F00, symBinAddr: 0xC070, symSize: 0x0 }
  - { offsetInCU: 0x9D, offset: 0x9D, size: 0x8, addend: 0x0, symName: '__ZL66_logos_orig$_ungrouped$SBSearchBackdropView$setTransitionProgress$', symObjAddr: 0x8F08, symBinAddr: 0xC078, symSize: 0x0 }
  - { offsetInCU: 0xD3, offset: 0xD3, size: 0x8, addend: 0x0, symName: '__ZL50_logos_orig$_ungrouped$SBSearchBlurEffectView$init', symObjAddr: 0x8F10, symBinAddr: 0xC080, symSize: 0x0 }
  - { offsetInCU: 0x10C, offset: 0x10C, size: 0x8, addend: 0x0, symName: '__ZL77_logos_orig$_ungrouped$SearchUIRoundedView$updateCornersRoundTop$roundBottom$', symObjAddr: 0x8F18, symBinAddr: 0xC088, symSize: 0x0 }
  - { offsetInCU: 0x14B, offset: 0x14B, size: 0x8, addend: 0x0, symName: '__ZL52_logos_orig$_ungrouped$SearchUIRoundedView$setColor$', symObjAddr: 0x8F20, symBinAddr: 0xC090, symSize: 0x0 }
  - { offsetInCU: 0x1A3, offset: 0x1A3, size: 0x8, addend: 0x0, symName: '__ZL84_logos_orig$_ungrouped$SearchUIRoundedView$imageWithCornersRoundedTop$roundedBottom$', symObjAddr: 0x8F28, symBinAddr: 0xC098, symSize: 0x0 }
  - { offsetInCU: 0x1DB, offset: 0x1DB, size: 0x8, addend: 0x0, symName: '__ZL56_logos_orig$_ungrouped$UITableViewCell$_insetsBackground', symObjAddr: 0x8F30, symBinAddr: 0xC0A0, symSize: 0x0 }
  - { offsetInCU: 0x1D75, offset: 0x1D75, size: 0x8, addend: 0x0, symName: '__ZL53_logos_orig$_ungrouped$UITableView$setSeparatorStyle$', symObjAddr: 0x8F38, symBinAddr: 0xC0A8, symSize: 0x0 }
  - { offsetInCU: 0x25E6, offset: 0x25E6, size: 0x8, addend: 0x0, symName: '__ZL79_logos_orig$_ungrouped$SPUISearchViewController$shouldShowMoreButtonForSection$', symObjAddr: 0x8F40, symBinAddr: 0xC0B0, symSize: 0x0 }
  - { offsetInCU: 0x2624, offset: 0x2624, size: 0x8, addend: 0x0, symName: '__ZL75_logos_orig$_ungrouped$SPUISearchViewController$setClearSearchTimeInterval$', symObjAddr: 0x8F48, symBinAddr: 0xC0B8, symSize: 0x0 }
  - { offsetInCU: 0x2653, offset: 0x2653, size: 0x8, addend: 0x0, symName: '__ZL84_logos_orig$_ungrouped$SPUISearchTableHeaderView$updateWithTitle$section$isExpanded$', symObjAddr: 0x8F50, symBinAddr: 0xC0C0, symSize: 0x0 }
  - { offsetInCU: 0x2697, offset: 0x2697, size: 0x8, addend: 0x0, symName: '__ZL61_logos_orig$_ungrouped$SPUISearchTableView$sectionIsExpanded$', symObjAddr: 0x8F58, symBinAddr: 0xC0C8, symSize: 0x0 }
  - { offsetInCU: 0x26DF, offset: 0x26DF, size: 0x8, addend: 0x0, symName: __ZL15_logosLocalInitv, symObjAddr: 0x0, symBinAddr: 0x4000, symSize: 0x1E0 }
  - { offsetInCU: 0x2895, offset: 0x2895, size: 0x8, addend: 0x0, symName: '__ZL68_logos_method$_ungrouped$SBSearchBackdropView$useHighQualityGraphicsP20SBSearchBackdropViewP13objc_selector', symObjAddr: 0x1E0, symBinAddr: 0x41E0, symSize: 0x8 }
  - { offsetInCU: 0x28CD, offset: 0x28CD, size: 0x8, addend: 0x0, symName: '__ZL68_logos_method$_ungrouped$SBSearchBackdropView$useHighQualityGraphicsP20SBSearchBackdropViewP13objc_selector', symObjAddr: 0x1E0, symBinAddr: 0x41E0, symSize: 0x8 }
  - { offsetInCU: 0x2901, offset: 0x2901, size: 0x8, addend: 0x0, symName: '__ZL68_logos_method$_ungrouped$SBSearchBackdropView$setTransitionProgress$P20SBSearchBackdropViewP13objc_selectord', symObjAddr: 0x1E8, symBinAddr: 0x41E8, symSize: 0x14 }
  - { offsetInCU: 0x294A, offset: 0x294A, size: 0x8, addend: 0x0, symName: '__ZL52_logos_method$_ungrouped$SBSearchBlurEffectView$initP22SBSearchBlurEffectViewP13objc_selector', symObjAddr: 0x1FC, symBinAddr: 0x41FC, symSize: 0x8 }
  - { offsetInCU: 0x2963, offset: 0x2963, size: 0x8, addend: 0x0, symName: '__ZL52_logos_method$_ungrouped$SBSearchBlurEffectView$initP22SBSearchBlurEffectViewP13objc_selector', symObjAddr: 0x1FC, symBinAddr: 0x41FC, symSize: 0x8 }
  - { offsetInCU: 0x2997, offset: 0x2997, size: 0x8, addend: 0x0, symName: '__ZL79_logos_method$_ungrouped$SearchUIRoundedView$updateCornersRoundTop$roundBottom$P19SearchUIRoundedViewP13objc_selectorbb', symObjAddr: 0x204, symBinAddr: 0x4204, symSize: 0x14 }
  - { offsetInCU: 0x29E4, offset: 0x29E4, size: 0x8, addend: 0x0, symName: '__ZL54_logos_method$_ungrouped$SearchUIRoundedView$setColor$P19SearchUIRoundedViewP13objc_selectorP11objc_object', symObjAddr: 0x218, symBinAddr: 0x4218, symSize: 0x54 }
  - { offsetInCU: 0x2A07, offset: 0x2A07, size: 0x8, addend: 0x0, symName: '__ZL54_logos_method$_ungrouped$SearchUIRoundedView$setColor$P19SearchUIRoundedViewP13objc_selectorP11objc_object', symObjAddr: 0x218, symBinAddr: 0x4218, symSize: 0x54 }
  - { offsetInCU: 0x2A4F, offset: 0x2A4F, size: 0x8, addend: 0x0, symName: '__ZL86_logos_method$_ungrouped$SearchUIRoundedView$imageWithCornersRoundedTop$roundedBottom$P19SearchUIRoundedViewP13objc_selectorbb', symObjAddr: 0x26C, symBinAddr: 0x426C, symSize: 0x14 }
  - { offsetInCU: 0x2A66, offset: 0x2A66, size: 0x8, addend: 0x0, symName: '__ZL86_logos_method$_ungrouped$SearchUIRoundedView$imageWithCornersRoundedTop$roundedBottom$P19SearchUIRoundedViewP13objc_selectorbb', symObjAddr: 0x26C, symBinAddr: 0x426C, symSize: 0x14 }
  - { offsetInCU: 0x2AB7, offset: 0x2AB7, size: 0x8, addend: 0x0, symName: '__ZL58_logos_method$_ungrouped$UITableViewCell$_insetsBackgroundP15UITableViewCellP13objc_selector', symObjAddr: 0x280, symBinAddr: 0x4280, symSize: 0x8 }
  - { offsetInCU: 0x2ADA, offset: 0x2ADA, size: 0x8, addend: 0x0, symName: '__ZL58_logos_method$_ungrouped$UITableViewCell$_insetsBackgroundP15UITableViewCellP13objc_selector', symObjAddr: 0x280, symBinAddr: 0x4280, symSize: 0x8 }
  - { offsetInCU: 0x2B0E, offset: 0x2B0E, size: 0x8, addend: 0x0, symName: '__ZL55_logos_method$_ungrouped$UITableView$setSeparatorStyle$P11UITableViewP13objc_selectorx', symObjAddr: 0x288, symBinAddr: 0x4288, symSize: 0x10 }
  - { offsetInCU: 0x2B4F, offset: 0x2B4F, size: 0x8, addend: 0x0, symName: '__ZL81_logos_method$_ungrouped$SPUISearchViewController$shouldShowMoreButtonForSection$P24SPUISearchViewControllerP13objc_selectory', symObjAddr: 0x298, symBinAddr: 0x4298, symSize: 0x8 }
  - { offsetInCU: 0x2B6D, offset: 0x2B6D, size: 0x8, addend: 0x0, symName: '__ZL81_logos_method$_ungrouped$SPUISearchViewController$shouldShowMoreButtonForSection$P24SPUISearchViewControllerP13objc_selectory', symObjAddr: 0x298, symBinAddr: 0x4298, symSize: 0x8 }
  - { offsetInCU: 0x2BAC, offset: 0x2BAC, size: 0x8, addend: 0x0, symName: '__ZL77_logos_method$_ungrouped$SPUISearchViewController$setClearSearchTimeInterval$P24SPUISearchViewControllerP13objc_selectord', symObjAddr: 0x2A0, symBinAddr: 0x42A0, symSize: 0x10 }
  - { offsetInCU: 0x2BED, offset: 0x2BED, size: 0x8, addend: 0x0, symName: '__ZL86_logos_method$_ungrouped$SPUISearchTableHeaderView$updateWithTitle$section$isExpanded$P25SPUISearchTableHeaderViewP13objc_selectorP11objc_objectyb', symObjAddr: 0x2B0, symBinAddr: 0x42B0, symSize: 0x10 }
  - { offsetInCU: 0x2C06, offset: 0x2C06, size: 0x8, addend: 0x0, symName: '__ZL86_logos_method$_ungrouped$SPUISearchTableHeaderView$updateWithTitle$section$isExpanded$P25SPUISearchTableHeaderViewP13objc_selectorP11objc_objectyb', symObjAddr: 0x2B0, symBinAddr: 0x42B0, symSize: 0x10 }
  - { offsetInCU: 0x2C61, offset: 0x2C61, size: 0x8, addend: 0x0, symName: '__ZL63_logos_method$_ungrouped$SPUISearchTableView$sectionIsExpanded$P19SPUISearchTableViewP13objc_selectorx', symObjAddr: 0x2C0, symBinAddr: 0x42C0, symSize: 0x8 }
  - { offsetInCU: 0x2C8D, offset: 0x2C8D, size: 0x8, addend: 0x0, symName: '__ZL63_logos_method$_ungrouped$SPUISearchTableView$sectionIsExpanded$P19SPUISearchTableViewP13objc_selectorx', symObjAddr: 0x2C0, symBinAddr: 0x42C0, symSize: 0x8 }
...
