---
triple:          'arm64-apple-darwin'
binary-path:     '/Users/az/Desktop/sinfool/Sandbox4/IncognitoVideoModec/.theos/obj/arm64/IncognitoVideoMode.dylib'
relocations:
  - { offsetInCU: 0x1E, offset: 0x1E, size: 0x8, addend: 0x0, symName: __ZL15_logosLocalInitv, symObjAddr: 0x0, symBinAddr: 0x4000, symSize: 0x270 }
  - { offsetInCU: 0x4A, offset: 0x4A, size: 0x8, addend: 0x0, symName: '__ZL51_logos_orig$_ungrouped$CAMCaptureConfiguration$mode', symObjAddr: 0x3568, symBinAddr: 0xC080, symSize: 0x0 }
  - { offsetInCU: 0x9D, offset: 0x9D, size: 0x8, addend: 0x0, symName: '__ZL73_logos_orig$_ungrouped$CAMUserPreferences$shouldResetCaptureConfiguration', symObjAddr: 0x3570, symBinAddr: 0xC088, symSize: 0x0 }
  - { offsetInCU: 0xDD, offset: 0xDD, size: 0x8, addend: 0x0, symName: '__ZL56_logos_orig$_ungrouped$CUShutterButton$setMode$animated$', symObjAddr: 0x3578, symBinAddr: 0xC090, symSize: 0x0 }
  - { offsetInCU: 0x11C, offset: 0x11C, size: 0x8, addend: 0x0, symName: '__ZL60_logos_orig$_ungrouped$CAMModeDial$setSelectedMode$animated$', symObjAddr: 0x3580, symBinAddr: 0xC098, symSize: 0x0 }
  - { offsetInCU: 0x15B, offset: 0x15B, size: 0x8, addend: 0x0, symName: '__ZL48_logos_orig$_ungrouped$CAMTopBar$backgroundStyle', symObjAddr: 0x3588, symBinAddr: 0xC0A0, symSize: 0x0 }
  - { offsetInCU: 0x194, offset: 0x194, size: 0x8, addend: 0x0, symName: '__ZL51_logos_orig$_ungrouped$CAMBottomBar$backgroundStyle', symObjAddr: 0x3590, symBinAddr: 0xC0A8, symSize: 0x0 }
  - { offsetInCU: 0x1CD, offset: 0x1CD, size: 0x8, addend: 0x0, symName: '__ZL99_logos_orig$_ungrouped$CAMViewfinderViewController$_shouldHideElapsedTimeViewForGraphConfiguration$', symObjAddr: 0x3598, symBinAddr: 0xC0B0, symSize: 0x0 }
  - { offsetInCU: 0x234, offset: 0x234, size: 0x8, addend: 0x0, symName: '__ZL106_logos_orig$_ungrouped$CAMViewfinderViewController$_shouldHideStillDuringVideoButtonForGraphConfiguration$', symObjAddr: 0x35A0, symBinAddr: 0xC0B8, symSize: 0x0 }
  - { offsetInCU: 0x24D, offset: 0x24D, size: 0x8, addend: 0x0, symName: '__ZL102_logos_orig$_ungrouped$CAMViewfinderViewController$_shouldHideFramerateIndicatorForGraphConfiguration$', symObjAddr: 0x35A8, symBinAddr: 0xC0C0, symSize: 0x0 }
  - { offsetInCU: 0x266, offset: 0x266, size: 0x8, addend: 0x0, symName: '__ZL92_logos_orig$_ungrouped$CAMViewfinderViewController$_shouldRotateTopBarForGraphConfiguration$', symObjAddr: 0x35B0, symBinAddr: 0xC0C8, symSize: 0x0 }
  - { offsetInCU: 0x27F, offset: 0x27F, size: 0x8, addend: 0x0, symName: '__ZL95_logos_orig$_ungrouped$CAMViewfinderViewController$_shouldHideFlashButtonForGraphConfiguration$', symObjAddr: 0x35B8, symBinAddr: 0xC0D0, symSize: 0x0 }
  - { offsetInCU: 0x298, offset: 0x298, size: 0x8, addend: 0x0, symName: '__ZL93_logos_orig$_ungrouped$CAMViewfinderViewController$_shouldHideHDRButtonForGraphConfiguration$', symObjAddr: 0x35C0, symBinAddr: 0xC0D8, symSize: 0x0 }
  - { offsetInCU: 0x2B1, offset: 0x2B1, size: 0x8, addend: 0x0, symName: '__ZL94_logos_orig$_ungrouped$CAMViewfinderViewController$_shouldHideIrisButtonForGraphConfiguration$', symObjAddr: 0x35C8, symBinAddr: 0xC0E0, symSize: 0x0 }
  - { offsetInCU: 0x2CA, offset: 0x2CA, size: 0x8, addend: 0x0, symName: '__ZL95_logos_orig$_ungrouped$CAMViewfinderViewController$_shouldHideTimerButtonForGraphConfiguration$', symObjAddr: 0x35D0, symBinAddr: 0xC0E8, symSize: 0x0 }
  - { offsetInCU: 0x2E3, offset: 0x2E3, size: 0x8, addend: 0x0, symName: '__ZL94_logos_orig$_ungrouped$CAMViewfinderViewController$_shouldHideFlipButtonForGraphConfiguration$', symObjAddr: 0x35D8, symBinAddr: 0xC0F0, symSize: 0x0 }
  - { offsetInCU: 0x2FC, offset: 0x2FC, size: 0x8, addend: 0x0, symName: '__ZL93_logos_orig$_ungrouped$CAMViewfinderViewController$_shouldHideImageWellForGraphConfiguration$', symObjAddr: 0x35E0, symBinAddr: 0xC0F8, symSize: 0x0 }
  - { offsetInCU: 0x315, offset: 0x315, size: 0x8, addend: 0x0, symName: '__ZL96_logos_orig$_ungrouped$CAMViewfinderViewController$_shouldHideFilterButtonForGraphConfiguration$', symObjAddr: 0x35E8, symBinAddr: 0xC100, symSize: 0x0 }
  - { offsetInCU: 0x338, offset: 0x338, size: 0x8, addend: 0x0, symName: __ZL15_logosLocalInitv, symObjAddr: 0x0, symBinAddr: 0x4000, symSize: 0x270 }
  - { offsetInCU: 0x544, offset: 0x544, size: 0x8, addend: 0x0, symName: '__ZL53_logos_method$_ungrouped$CAMCaptureConfiguration$modeP23CAMCaptureConfigurationP13objc_selector', symObjAddr: 0x270, symBinAddr: 0x4270, symSize: 0x8 }
  - { offsetInCU: 0x591, offset: 0x591, size: 0x8, addend: 0x0, symName: '__ZL53_logos_method$_ungrouped$CAMCaptureConfiguration$modeP23CAMCaptureConfigurationP13objc_selector', symObjAddr: 0x270, symBinAddr: 0x4270, symSize: 0x8 }
  - { offsetInCU: 0x5C5, offset: 0x5C5, size: 0x8, addend: 0x0, symName: '__ZL75_logos_method$_ungrouped$CAMUserPreferences$shouldResetCaptureConfigurationP18CAMUserPreferencesP13objc_selector', symObjAddr: 0x278, symBinAddr: 0x4278, symSize: 0x8 }
  - { offsetInCU: 0x5F9, offset: 0x5F9, size: 0x8, addend: 0x0, symName: '__ZL58_logos_method$_ungrouped$CUShutterButton$setMode$animated$P15CUShutterButtonP13objc_selectorxb', symObjAddr: 0x280, symBinAddr: 0x4280, symSize: 0x10 }
  - { offsetInCU: 0x64C, offset: 0x64C, size: 0x8, addend: 0x0, symName: '__ZL62_logos_method$_ungrouped$CAMModeDial$setSelectedMode$animated$P11CAMModeDialP13objc_selectorxb', symObjAddr: 0x290, symBinAddr: 0x4290, symSize: 0x10 }
  - { offsetInCU: 0x671, offset: 0x671, size: 0x8, addend: 0x0, symName: '__ZL62_logos_method$_ungrouped$CAMModeDial$setSelectedMode$animated$P11CAMModeDialP13objc_selectorxb', symObjAddr: 0x290, symBinAddr: 0x4290, symSize: 0x10 }
  - { offsetInCU: 0x6C4, offset: 0x6C4, size: 0x8, addend: 0x0, symName: '__ZL50_logos_method$_ungrouped$CAMTopBar$backgroundStyleP9CAMTopBarP13objc_selector', symObjAddr: 0x2A0, symBinAddr: 0x42A0, symSize: 0x8 }
  - { offsetInCU: 0x6E9, offset: 0x6E9, size: 0x8, addend: 0x0, symName: '__ZL50_logos_method$_ungrouped$CAMTopBar$backgroundStyleP9CAMTopBarP13objc_selector', symObjAddr: 0x2A0, symBinAddr: 0x42A0, symSize: 0x8 }
  - { offsetInCU: 0x71D, offset: 0x71D, size: 0x8, addend: 0x0, symName: '__ZL53_logos_method$_ungrouped$CAMBottomBar$backgroundStyleP12CAMBottomBarP13objc_selector', symObjAddr: 0x2A8, symBinAddr: 0x42A8, symSize: 0x8 }
  - { offsetInCU: 0x751, offset: 0x751, size: 0x8, addend: 0x0, symName: '__ZL101_logos_method$_ungrouped$CAMViewfinderViewController$_shouldHideElapsedTimeViewForGraphConfiguration$P27CAMViewfinderViewControllerP13objc_selectorP11objc_object', symObjAddr: 0x2B0, symBinAddr: 0x42B0, symSize: 0x8 }
  - { offsetInCU: 0x790, offset: 0x790, size: 0x8, addend: 0x0, symName: '__ZL108_logos_method$_ungrouped$CAMViewfinderViewController$_shouldHideStillDuringVideoButtonForGraphConfiguration$P27CAMViewfinderViewControllerP13objc_selectorP11objc_object', symObjAddr: 0x2B8, symBinAddr: 0x42B8, symSize: 0x8 }
  - { offsetInCU: 0x7CF, offset: 0x7CF, size: 0x8, addend: 0x0, symName: '__ZL104_logos_method$_ungrouped$CAMViewfinderViewController$_shouldHideFramerateIndicatorForGraphConfiguration$P27CAMViewfinderViewControllerP13objc_selectorP11objc_object', symObjAddr: 0x2C0, symBinAddr: 0x42C0, symSize: 0x8 }
  - { offsetInCU: 0x80E, offset: 0x80E, size: 0x8, addend: 0x0, symName: '__ZL94_logos_method$_ungrouped$CAMViewfinderViewController$_shouldRotateTopBarForGraphConfiguration$P27CAMViewfinderViewControllerP13objc_selectorP11objc_object', symObjAddr: 0x2C8, symBinAddr: 0x42C8, symSize: 0x8 }
  - { offsetInCU: 0x84D, offset: 0x84D, size: 0x8, addend: 0x0, symName: '__ZL97_logos_method$_ungrouped$CAMViewfinderViewController$_shouldHideFlashButtonForGraphConfiguration$P27CAMViewfinderViewControllerP13objc_selectorP11objc_object', symObjAddr: 0x2D0, symBinAddr: 0x42D0, symSize: 0x8 }
  - { offsetInCU: 0x88C, offset: 0x88C, size: 0x8, addend: 0x0, symName: '__ZL95_logos_method$_ungrouped$CAMViewfinderViewController$_shouldHideHDRButtonForGraphConfiguration$P27CAMViewfinderViewControllerP13objc_selectorP11objc_object', symObjAddr: 0x2D8, symBinAddr: 0x42D8, symSize: 0x8 }
  - { offsetInCU: 0x8CB, offset: 0x8CB, size: 0x8, addend: 0x0, symName: '__ZL96_logos_method$_ungrouped$CAMViewfinderViewController$_shouldHideIrisButtonForGraphConfiguration$P27CAMViewfinderViewControllerP13objc_selectorP11objc_object', symObjAddr: 0x2E0, symBinAddr: 0x42E0, symSize: 0x8 }
  - { offsetInCU: 0x90A, offset: 0x90A, size: 0x8, addend: 0x0, symName: '__ZL97_logos_method$_ungrouped$CAMViewfinderViewController$_shouldHideTimerButtonForGraphConfiguration$P27CAMViewfinderViewControllerP13objc_selectorP11objc_object', symObjAddr: 0x2E8, symBinAddr: 0x42E8, symSize: 0x8 }
  - { offsetInCU: 0x949, offset: 0x949, size: 0x8, addend: 0x0, symName: '__ZL96_logos_method$_ungrouped$CAMViewfinderViewController$_shouldHideFlipButtonForGraphConfiguration$P27CAMViewfinderViewControllerP13objc_selectorP11objc_object', symObjAddr: 0x2F0, symBinAddr: 0x42F0, symSize: 0x8 }
  - { offsetInCU: 0x988, offset: 0x988, size: 0x8, addend: 0x0, symName: '__ZL95_logos_method$_ungrouped$CAMViewfinderViewController$_shouldHideImageWellForGraphConfiguration$P27CAMViewfinderViewControllerP13objc_selectorP11objc_object', symObjAddr: 0x2F8, symBinAddr: 0x42F8, symSize: 0x8 }
  - { offsetInCU: 0x9C7, offset: 0x9C7, size: 0x8, addend: 0x0, symName: '__ZL98_logos_method$_ungrouped$CAMViewfinderViewController$_shouldHideFilterButtonForGraphConfiguration$P27CAMViewfinderViewControllerP13objc_selectorP11objc_object', symObjAddr: 0x300, symBinAddr: 0x4300, symSize: 0x8 }
...
