---
triple:          'arm64e-apple-darwin'
binary-path:     '/Users/az/Desktop/sinfool/Sandbox1/AIONoAdsLabelsRateMeBuyButtonSBAIUnlimitedSkipsver41004101/.theos/obj/arm64e/AIONoAdsLabelsRateMeBuyButtonSBAIUnlimitedSkipsver41004101.dylib'
relocations:
  - { offsetInCU: 0x1E, offset: 0x1E, size: 0x8, addend: 0x0, symName: __ZL15_logosLocalInitv, symObjAddr: 0x0, symBinAddr: 0x4000, symSize: 0x1B4 }
  - { offsetInCU: 0x4A, offset: 0x4A, size: 0x8, addend: 0x0, symName: '__ZL50_logos_orig$_ungrouped$iRate$shouldPromptForRating', symObjAddr: 0x3820, symBinAddr: 0xC048, symSize: 0x0 }
  - { offsetInCU: 0xA8, offset: 0xA8, size: 0x8, addend: 0x0, symName: '__ZL52_logos_orig$_ungrouped$CopyrightLabel$initWithFrame$', symObjAddr: 0x3828, symBinAddr: 0xC050, symSize: 0x0 }
  - { offsetInCU: 0x180, offset: 0x180, size: 0x8, addend: 0x0, symName: '__ZL57_logos_orig$_ungrouped$Configuration$isNoSkipLimitEnabled', symObjAddr: 0x3830, symBinAddr: 0xC058, symSize: 0x0 }
  - { offsetInCU: 0x1B9, offset: 0x1B9, size: 0x8, addend: 0x0, symName: '__ZL60_logos_orig$_ungrouped$Configuration$liveRadioVideoAdEnabled', symObjAddr: 0x3838, symBinAddr: 0xC060, symSize: 0x0 }
  - { offsetInCU: 0x1D2, offset: 0x1D2, size: 0x8, addend: 0x0, symName: '__ZL64_logos_orig$_ungrouped$Configuration$liveRadioCompanionAdEnabled', symObjAddr: 0x3840, symBinAddr: 0xC068, symSize: 0x0 }
  - { offsetInCU: 0x1EB, offset: 0x1EB, size: 0x8, addend: 0x0, symName: '__ZL62_logos_orig$_ungrouped$Configuration$customRadioVideoAdEnabled', symObjAddr: 0x3848, symBinAddr: 0xC070, symSize: 0x0 }
  - { offsetInCU: 0x204, offset: 0x204, size: 0x8, addend: 0x0, symName: '__ZL62_logos_orig$_ungrouped$Configuration$customRadioAudioAdEnabled', symObjAddr: 0x3850, symBinAddr: 0xC078, symSize: 0x0 }
  - { offsetInCU: 0x21D, offset: 0x21D, size: 0x8, addend: 0x0, symName: '__ZL66_logos_orig$_ungrouped$Configuration$customRadioCompanionAdEnabled', symObjAddr: 0x3858, symBinAddr: 0xC080, symSize: 0x0 }
  - { offsetInCU: 0x236, offset: 0x236, size: 0x8, addend: 0x0, symName: '__ZL78_logos_orig$_ungrouped$UIActivityIndicatorView$initWithActivityIndicatorStyle$', symObjAddr: 0x3860, symBinAddr: 0xC088, symSize: 0x0 }
  - { offsetInCU: 0xCDB, offset: 0xCDB, size: 0x8, addend: 0x0, symName: __ZL15_logosLocalInitv, symObjAddr: 0x0, symBinAddr: 0x4000, symSize: 0x1B4 }
  - { offsetInCU: 0xE01, offset: 0xE01, size: 0x8, addend: 0x0, symName: '__ZL52_logos_method$_ungrouped$iRate$shouldPromptForRatingP5iRateP13objc_selector', symObjAddr: 0x1B4, symBinAddr: 0x41B4, symSize: 0x8 }
  - { offsetInCU: 0xE3E, offset: 0xE3E, size: 0x8, addend: 0x0, symName: '__ZL52_logos_method$_ungrouped$iRate$shouldPromptForRatingP5iRateP13objc_selector', symObjAddr: 0x1B4, symBinAddr: 0x41B4, symSize: 0x8 }
  - { offsetInCU: 0xE72, offset: 0xE72, size: 0x8, addend: 0x0, symName: '__ZL54_logos_method$_ungrouped$CopyrightLabel$initWithFrame$P14CopyrightLabelP13objc_selector6CGRect', symObjAddr: 0x1BC, symBinAddr: 0x41BC, symSize: 0x8 }
  - { offsetInCU: 0xEB1, offset: 0xEB1, size: 0x8, addend: 0x0, symName: '__ZL59_logos_method$_ungrouped$Configuration$isNoSkipLimitEnabledP13ConfigurationP13objc_selector', symObjAddr: 0x1C4, symBinAddr: 0x41C4, symSize: 0x8 }
  - { offsetInCU: 0xEE5, offset: 0xEE5, size: 0x8, addend: 0x0, symName: '__ZL62_logos_method$_ungrouped$Configuration$liveRadioVideoAdEnabledP13ConfigurationP13objc_selector', symObjAddr: 0x1CC, symBinAddr: 0x41CC, symSize: 0x8 }
  - { offsetInCU: 0xF19, offset: 0xF19, size: 0x8, addend: 0x0, symName: '__ZL66_logos_method$_ungrouped$Configuration$liveRadioCompanionAdEnabledP13ConfigurationP13objc_selector', symObjAddr: 0x1D4, symBinAddr: 0x41D4, symSize: 0x8 }
  - { offsetInCU: 0xF4D, offset: 0xF4D, size: 0x8, addend: 0x0, symName: '__ZL64_logos_method$_ungrouped$Configuration$customRadioVideoAdEnabledP13ConfigurationP13objc_selector', symObjAddr: 0x1DC, symBinAddr: 0x41DC, symSize: 0x8 }
  - { offsetInCU: 0xF81, offset: 0xF81, size: 0x8, addend: 0x0, symName: '__ZL64_logos_method$_ungrouped$Configuration$customRadioAudioAdEnabledP13ConfigurationP13objc_selector', symObjAddr: 0x1E4, symBinAddr: 0x41E4, symSize: 0x8 }
  - { offsetInCU: 0xFB5, offset: 0xFB5, size: 0x8, addend: 0x0, symName: '__ZL68_logos_method$_ungrouped$Configuration$customRadioCompanionAdEnabledP13ConfigurationP13objc_selector', symObjAddr: 0x1EC, symBinAddr: 0x41EC, symSize: 0x8 }
  - { offsetInCU: 0xFE9, offset: 0xFE9, size: 0x8, addend: 0x0, symName: '__ZL80_logos_method$_ungrouped$UIActivityIndicatorView$initWithActivityIndicatorStyle$P23UIActivityIndicatorViewP13objc_selectorx', symObjAddr: 0x1F4, symBinAddr: 0x41F4, symSize: 0x8 }
...
