---
triple:          'arm64-apple-darwin'
binary-path:     '/Users/az/Desktop/sinfool/Sandbox4/AlertsCustomiable/.theos/obj/arm64/AlertsCustomiable.dylib'
relocations:
  - { offsetInCU: 0x1E, offset: 0x1E, size: 0x8, addend: 0x0, symName: __ZL15_logosLocalInitv, symObjAddr: 0x0, symBinAddr: 0x4000, symSize: 0x208 }
  - { offsetInCU: 0x4A, offset: 0x4A, size: 0x8, addend: 0x0, symName: '__ZL59_logos_orig$_ungrouped$UITraitCollection$userInterfaceIdiom', symObjAddr: 0x5B68, symBinAddr: 0xC070, symSize: 0x0 }
  - { offsetInCU: 0x23F, offset: 0x23F, size: 0x8, addend: 0x0, symName: '__ZL70_logos_orig$_ungrouped$UINavigationButton$_isExternalRoundedRectButton', symObjAddr: 0x5B70, symBinAddr: 0xC078, symSize: 0x0 }
  - { offsetInCU: 0x27F, offset: 0x27F, size: 0x8, addend: 0x0, symName: '__ZL55_logos_orig$_ungrouped$UIAlertController$preferredStyle', symObjAddr: 0x5B78, symBinAddr: 0xC080, symSize: 0x0 }
  - { offsetInCU: 0x119A, offset: 0x119A, size: 0x8, addend: 0x0, symName: '__ZL73_logos_orig$_ungrouped$UIAlertController$_canDismissWithGestureRecognizer', symObjAddr: 0x5B80, symBinAddr: 0xC088, symSize: 0x0 }
  - { offsetInCU: 0x11C8, offset: 0x11C8, size: 0x8, addend: 0x0, symName: '__ZL78_logos_orig$_ungrouped$_UIAlertControllerCarBackgroundView$setBackgroundColor$', symObjAddr: 0x5B88, symBinAddr: 0xC090, symSize: 0x0 }
  - { offsetInCU: 0x1202, offset: 0x1202, size: 0x8, addend: 0x0, symName: '__ZL75_logos_orig$_ungrouped$_UIAlertControllerCarBackgroundView$setCornerRadius$', symObjAddr: 0x5B90, symBinAddr: 0xC098, symSize: 0x0 }
  - { offsetInCU: 0x1231, offset: 0x1231, size: 0x8, addend: 0x0, symName: '__ZL80_logos_orig$_ungrouped$_UIAlertControllerCollectionViewFlowLayout$hideSeparators', symObjAddr: 0x5B98, symBinAddr: 0xC0A0, symSize: 0x0 }
  - { offsetInCU: 0x126A, offset: 0x126A, size: 0x8, addend: 0x0, symName: '__ZL86_logos_orig$_ungrouped$_UIAlertControllerCollectionViewFlowLayout$shouldRoundFirstCell', symObjAddr: 0x5BA0, symBinAddr: 0xC0A8, symSize: 0x0 }
  - { offsetInCU: 0x1283, offset: 0x1283, size: 0x8, addend: 0x0, symName: '__ZL92_logos_orig$_ungrouped$UIAlertControllerVisualStyleAlertCar$maximumNumberOfLinesInTitleLabel', symObjAddr: 0x5BA8, symBinAddr: 0xC0B0, symSize: 0x0 }
  - { offsetInCU: 0x12BC, offset: 0x12BC, size: 0x8, addend: 0x0, symName: '__ZL94_logos_orig$_ungrouped$UIAlertControllerVisualStyleAlertCar$maximumNumberOfLinesInMessageLabel', symObjAddr: 0x5BB0, symBinAddr: 0xC0B8, symSize: 0x0 }
  - { offsetInCU: 0x12D5, offset: 0x12D5, size: 0x8, addend: 0x0, symName: '__ZL98_logos_orig$_ungrouped$UIAlertControllerVisualStyleActionSheetCar$maximumNumberOfLinesInTitleLabel', symObjAddr: 0x5BB8, symBinAddr: 0xC0C0, symSize: 0x0 }
  - { offsetInCU: 0x130E, offset: 0x130E, size: 0x8, addend: 0x0, symName: '__ZL63_logos_orig$_ungrouped$_UIAlertControllerView$showsCancelAction', symObjAddr: 0x5BC0, symBinAddr: 0xC0C8, symSize: 0x0 }
  - { offsetInCU: 0x1347, offset: 0x1347, size: 0x8, addend: 0x0, symName: '__ZL72_logos_orig$_ungrouped$_UIAlertControllerView$setCancelActionIsDiscrete$', symObjAddr: 0x5BC8, symBinAddr: 0xC0D0, symSize: 0x0 }
  - { offsetInCU: 0x1380, offset: 0x1380, size: 0x8, addend: 0x0, symName: __ZL15_logosLocalInitv, symObjAddr: 0x0, symBinAddr: 0x4000, symSize: 0x208 }
  - { offsetInCU: 0x1551, offset: 0x1551, size: 0x8, addend: 0x0, symName: '__ZL61_logos_method$_ungrouped$UITraitCollection$userInterfaceIdiomP17UITraitCollectionP13objc_selector', symObjAddr: 0x208, symBinAddr: 0x4208, symSize: 0x8 }
  - { offsetInCU: 0x1590, offset: 0x1590, size: 0x8, addend: 0x0, symName: '__ZL61_logos_method$_ungrouped$UITraitCollection$userInterfaceIdiomP17UITraitCollectionP13objc_selector', symObjAddr: 0x208, symBinAddr: 0x4208, symSize: 0x8 }
  - { offsetInCU: 0x15C4, offset: 0x15C4, size: 0x8, addend: 0x0, symName: '__ZL72_logos_method$_ungrouped$UINavigationButton$_isExternalRoundedRectButtonP18UINavigationButtonP13objc_selector', symObjAddr: 0x210, symBinAddr: 0x4210, symSize: 0x8 }
  - { offsetInCU: 0x15F8, offset: 0x15F8, size: 0x8, addend: 0x0, symName: '__ZL57_logos_method$_ungrouped$UIAlertController$preferredStyleP17UIAlertControllerP13objc_selector', symObjAddr: 0x218, symBinAddr: 0x4218, symSize: 0x8 }
  - { offsetInCU: 0x162C, offset: 0x162C, size: 0x8, addend: 0x0, symName: '__ZL75_logos_method$_ungrouped$UIAlertController$_canDismissWithGestureRecognizerP17UIAlertControllerP13objc_selector', symObjAddr: 0x220, symBinAddr: 0x4220, symSize: 0x8 }
  - { offsetInCU: 0x1660, offset: 0x1660, size: 0x8, addend: 0x0, symName: '__ZL80_logos_method$_ungrouped$_UIAlertControllerCarBackgroundView$setBackgroundColor$P35_UIAlertControllerCarBackgroundViewP13objc_selectorP11objc_object', symObjAddr: 0x228, symBinAddr: 0x4228, symSize: 0x54 }
  - { offsetInCU: 0x16A8, offset: 0x16A8, size: 0x8, addend: 0x0, symName: '__ZL77_logos_method$_ungrouped$_UIAlertControllerCarBackgroundView$setCornerRadius$P35_UIAlertControllerCarBackgroundViewP13objc_selectord', symObjAddr: 0x27C, symBinAddr: 0x427C, symSize: 0x14 }
  - { offsetInCU: 0x16BF, offset: 0x16BF, size: 0x8, addend: 0x0, symName: '__ZL77_logos_method$_ungrouped$_UIAlertControllerCarBackgroundView$setCornerRadius$P35_UIAlertControllerCarBackgroundViewP13objc_selectord', symObjAddr: 0x27C, symBinAddr: 0x427C, symSize: 0x14 }
  - { offsetInCU: 0x1708, offset: 0x1708, size: 0x8, addend: 0x0, symName: '__ZL82_logos_method$_ungrouped$_UIAlertControllerCollectionViewFlowLayout$hideSeparatorsP42_UIAlertControllerCollectionViewFlowLayoutP13objc_selector', symObjAddr: 0x290, symBinAddr: 0x4290, symSize: 0x8 }
  - { offsetInCU: 0x1721, offset: 0x1721, size: 0x8, addend: 0x0, symName: '__ZL82_logos_method$_ungrouped$_UIAlertControllerCollectionViewFlowLayout$hideSeparatorsP42_UIAlertControllerCollectionViewFlowLayoutP13objc_selector', symObjAddr: 0x290, symBinAddr: 0x4290, symSize: 0x8 }
  - { offsetInCU: 0x1755, offset: 0x1755, size: 0x8, addend: 0x0, symName: '__ZL88_logos_method$_ungrouped$_UIAlertControllerCollectionViewFlowLayout$shouldRoundFirstCellP42_UIAlertControllerCollectionViewFlowLayoutP13objc_selector', symObjAddr: 0x298, symBinAddr: 0x4298, symSize: 0x8 }
  - { offsetInCU: 0x1789, offset: 0x1789, size: 0x8, addend: 0x0, symName: '__ZL94_logos_method$_ungrouped$UIAlertControllerVisualStyleAlertCar$maximumNumberOfLinesInTitleLabelP36UIAlertControllerVisualStyleAlertCarP13objc_selector', symObjAddr: 0x2A0, symBinAddr: 0x42A0, symSize: 0x8 }
  - { offsetInCU: 0x17BD, offset: 0x17BD, size: 0x8, addend: 0x0, symName: '__ZL96_logos_method$_ungrouped$UIAlertControllerVisualStyleAlertCar$maximumNumberOfLinesInMessageLabelP36UIAlertControllerVisualStyleAlertCarP13objc_selector', symObjAddr: 0x2A8, symBinAddr: 0x42A8, symSize: 0x8 }
  - { offsetInCU: 0x17F1, offset: 0x17F1, size: 0x8, addend: 0x0, symName: '__ZL100_logos_method$_ungrouped$UIAlertControllerVisualStyleActionSheetCar$maximumNumberOfLinesInTitleLabelP42UIAlertControllerVisualStyleActionSheetCarP13objc_selector', symObjAddr: 0x2B0, symBinAddr: 0x42B0, symSize: 0x8 }
  - { offsetInCU: 0x1825, offset: 0x1825, size: 0x8, addend: 0x0, symName: '__ZL65_logos_method$_ungrouped$_UIAlertControllerView$showsCancelActionP22_UIAlertControllerViewP13objc_selector', symObjAddr: 0x2B8, symBinAddr: 0x42B8, symSize: 0x8 }
  - { offsetInCU: 0x1859, offset: 0x1859, size: 0x8, addend: 0x0, symName: '__ZL74_logos_method$_ungrouped$_UIAlertControllerView$setCancelActionIsDiscrete$P22_UIAlertControllerViewP13objc_selectorb', symObjAddr: 0x2C0, symBinAddr: 0x42C0, symSize: 0x10 }
...
