---
triple:          'arm64e-apple-darwin'
binary-path:     '/Users/az/Desktop/sinfool/Sandbox2/AlertsSpotlightColorCustomierDarkStyle/.theos/obj/arm64e/AlertsSpotlightColorCustomierDarkStyle.dylib'
relocations:
  - { offsetInCU: 0x1E, offset: 0x1E, size: 0x8, addend: 0x0, symName: __ZL15_logosLocalInitv, symObjAddr: 0x0, symBinAddr: 0x4000, symSize: 0x208 }
  - { offsetInCU: 0x4A, offset: 0x4A, size: 0x8, addend: 0x0, symName: '__ZL68_logos_orig$_ungrouped$_UIVisualEffectFilterView$setBackgroundColor$', symObjAddr: 0x2968, symBinAddr: 0xC050, symSize: 0x0 }
  - { offsetInCU: 0xC0, offset: 0xC0, size: 0x8, addend: 0x0, symName: '__ZL72_logos_orig$_ungrouped$UIAlertControllerVisualStyleAlert$titleLabelColor', symObjAddr: 0x2970, symBinAddr: 0xC058, symSize: 0x0 }
  - { offsetInCU: 0xF9, offset: 0xF9, size: 0x8, addend: 0x0, symName: '__ZL74_logos_orig$_ungrouped$UIAlertControllerVisualStyleAlert$messageLabelColor', symObjAddr: 0x2978, symBinAddr: 0xC060, symSize: 0x0 }
  - { offsetInCU: 0x112, offset: 0x112, size: 0x8, addend: 0x0, symName: '__ZL78_logos_orig$_ungrouped$UIAlertControllerVisualStyleActionSheet$titleLabelColor', symObjAddr: 0x2980, symBinAddr: 0xC068, symSize: 0x0 }
  - { offsetInCU: 0x14B, offset: 0x14B, size: 0x8, addend: 0x0, symName: '__ZL80_logos_orig$_ungrouped$UIAlertControllerVisualStyleActionSheet$messageLabelColor', symObjAddr: 0x2988, symBinAddr: 0xC070, symSize: 0x0 }
  - { offsetInCU: 0x164, offset: 0x164, size: 0x8, addend: 0x0, symName: '__ZL110_logos_orig$_ungrouped$_UIAlertControllerInterfaceActionGroupView$_shouldShowSeparatorAboveActionsSequenceView', symObjAddr: 0x2990, symBinAddr: 0xC078, symSize: 0x0 }
  - { offsetInCU: 0x1A4, offset: 0x1A4, size: 0x8, addend: 0x0, symName: '__ZL72_logos_orig$_ungrouped$_UIAlertControllerView$setCancelActionIsDiscrete$', symObjAddr: 0x2998, symBinAddr: 0xC080, symSize: 0x0 }
  - { offsetInCU: 0x1DE, offset: 0x1DE, size: 0x8, addend: 0x0, symName: '__ZL53_logos_orig$_ungrouped$SPUITextField$updateWithColor$', symObjAddr: 0x29A0, symBinAddr: 0xC088, symSize: 0x0 }
  - { offsetInCU: 0x218, offset: 0x218, size: 0x8, addend: 0x0, symName: '__ZL53_logos_orig$_ungrouped$UIButtonContent$setTitleColor$', symObjAddr: 0x29A8, symBinAddr: 0xC090, symSize: 0x0 }
  - { offsetInCU: 0x252, offset: 0x252, size: 0x8, addend: 0x0, symName: '__ZL76_logos_orig$_ungrouped$_UIGroupTableViewCellBackgroundImageKey$setFillColor$', symObjAddr: 0x29B0, symBinAddr: 0xC098, symSize: 0x0 }
  - { offsetInCU: 0x296, offset: 0x296, size: 0x8, addend: 0x0, symName: __ZL15_logosLocalInitv, symObjAddr: 0x0, symBinAddr: 0x4000, symSize: 0x208 }
  - { offsetInCU: 0x43E, offset: 0x43E, size: 0x8, addend: 0x0, symName: '__ZL70_logos_method$_ungrouped$_UIVisualEffectFilterView$setBackgroundColor$P25_UIVisualEffectFilterViewP13objc_selectorP11objc_object', symObjAddr: 0x208, symBinAddr: 0x4208, symSize: 0x68 }
  - { offsetInCU: 0x484, offset: 0x484, size: 0x8, addend: 0x0, symName: '__ZL70_logos_method$_ungrouped$_UIVisualEffectFilterView$setBackgroundColor$P25_UIVisualEffectFilterViewP13objc_selectorP11objc_object', symObjAddr: 0x208, symBinAddr: 0x4208, symSize: 0x68 }
  - { offsetInCU: 0x4CC, offset: 0x4CC, size: 0x8, addend: 0x0, symName: '__ZL74_logos_method$_ungrouped$UIAlertControllerVisualStyleAlert$titleLabelColorP33UIAlertControllerVisualStyleAlertP13objc_selector', symObjAddr: 0x270, symBinAddr: 0x4270, symSize: 0x1C }
  - { offsetInCU: 0x4E3, offset: 0x4E3, size: 0x8, addend: 0x0, symName: '__ZL74_logos_method$_ungrouped$UIAlertControllerVisualStyleAlert$titleLabelColorP33UIAlertControllerVisualStyleAlertP13objc_selector', symObjAddr: 0x270, symBinAddr: 0x4270, symSize: 0x1C }
  - { offsetInCU: 0x517, offset: 0x517, size: 0x8, addend: 0x0, symName: '__ZL76_logos_method$_ungrouped$UIAlertControllerVisualStyleAlert$messageLabelColorP33UIAlertControllerVisualStyleAlertP13objc_selector', symObjAddr: 0x28C, symBinAddr: 0x428C, symSize: 0x20 }
  - { offsetInCU: 0x54B, offset: 0x54B, size: 0x8, addend: 0x0, symName: '__ZL80_logos_method$_ungrouped$UIAlertControllerVisualStyleActionSheet$titleLabelColorP39UIAlertControllerVisualStyleActionSheetP13objc_selector', symObjAddr: 0x2AC, symBinAddr: 0x42AC, symSize: 0x1C }
  - { offsetInCU: 0x57F, offset: 0x57F, size: 0x8, addend: 0x0, symName: '__ZL82_logos_method$_ungrouped$UIAlertControllerVisualStyleActionSheet$messageLabelColorP39UIAlertControllerVisualStyleActionSheetP13objc_selector', symObjAddr: 0x2C8, symBinAddr: 0x42C8, symSize: 0x20 }
  - { offsetInCU: 0x5B3, offset: 0x5B3, size: 0x8, addend: 0x0, symName: '__ZL112_logos_method$_ungrouped$_UIAlertControllerInterfaceActionGroupView$_shouldShowSeparatorAboveActionsSequenceViewP42_UIAlertControllerInterfaceActionGroupViewP13objc_selector', symObjAddr: 0x2E8, symBinAddr: 0x42E8, symSize: 0x8 }
  - { offsetInCU: 0x5E7, offset: 0x5E7, size: 0x8, addend: 0x0, symName: '__ZL74_logos_method$_ungrouped$_UIAlertControllerView$setCancelActionIsDiscrete$P22_UIAlertControllerViewP13objc_selectorb', symObjAddr: 0x2F0, symBinAddr: 0x42F0, symSize: 0x10 }
  - { offsetInCU: 0x628, offset: 0x628, size: 0x8, addend: 0x0, symName: '__ZL55_logos_method$_ungrouped$SPUITextField$updateWithColor$P13SPUITextFieldP13objc_selectorP11objc_object', symObjAddr: 0x300, symBinAddr: 0x4300, symSize: 0x64 }
  - { offsetInCU: 0x646, offset: 0x646, size: 0x8, addend: 0x0, symName: '__ZL55_logos_method$_ungrouped$SPUITextField$updateWithColor$P13SPUITextFieldP13objc_selectorP11objc_object', symObjAddr: 0x300, symBinAddr: 0x4300, symSize: 0x64 }
  - { offsetInCU: 0x68E, offset: 0x68E, size: 0x8, addend: 0x0, symName: '__ZL55_logos_method$_ungrouped$UIButtonContent$setTitleColor$P15UIButtonContentP13objc_selectorP11objc_object', symObjAddr: 0x364, symBinAddr: 0x4364, symSize: 0x64 }
  - { offsetInCU: 0x6A5, offset: 0x6A5, size: 0x8, addend: 0x0, symName: '__ZL55_logos_method$_ungrouped$UIButtonContent$setTitleColor$P15UIButtonContentP13objc_selectorP11objc_object', symObjAddr: 0x364, symBinAddr: 0x4364, symSize: 0x64 }
  - { offsetInCU: 0x6ED, offset: 0x6ED, size: 0x8, addend: 0x0, symName: '__ZL78_logos_method$_ungrouped$_UIGroupTableViewCellBackgroundImageKey$setFillColor$P39_UIGroupTableViewCellBackgroundImageKeyP13objc_selectorP11objc_object', symObjAddr: 0x3C8, symBinAddr: 0x43C8, symSize: 0x68 }
  - { offsetInCU: 0x704, offset: 0x704, size: 0x8, addend: 0x0, symName: '__ZL78_logos_method$_ungrouped$_UIGroupTableViewCellBackgroundImageKey$setFillColor$P39_UIGroupTableViewCellBackgroundImageKeyP13objc_selectorP11objc_object', symObjAddr: 0x3C8, symBinAddr: 0x43C8, symSize: 0x68 }
...
