---
triple:          'arm64-apple-darwin'
binary-path:     '/Users/az/Desktop/sinfool/Sandbox2/SleekCamera/.theos/obj/arm64/SleekCamera.dylib'
relocations:
  - { offsetInCU: 0x1E, offset: 0x1E, size: 0x8, addend: 0x0, symName: __ZL15_logosLocalInitv, symObjAddr: 0x0, symBinAddr: 0x4000, symSize: 0x36C }
  - { offsetInCU: 0x4A, offset: 0x4A, size: 0x8, addend: 0x0, symName: '__ZL73_logos_orig$_ungrouped$CAMUserPreferences$shouldResetCaptureConfiguration', symObjAddr: 0x45F0, symBinAddr: 0xC0B0, symSize: 0x0 }
  - { offsetInCU: 0x9D, offset: 0x9D, size: 0x8, addend: 0x0, symName: '__ZL71_logos_orig$_ungrouped$CAMViewfinderViewController$_aspectRatioForMode$', symObjAddr: 0x45F8, symBinAddr: 0xC0B8, symSize: 0x0 }
  - { offsetInCU: 0xE2, offset: 0xE2, size: 0x8, addend: 0x0, symName: '__ZL88_logos_orig$_ungrouped$CAMViewfinderViewController$_shouldHideFlashButtonForMode$device$', symObjAddr: 0x4600, symBinAddr: 0xC0C0, symSize: 0x0 }
  - { offsetInCU: 0x11A, offset: 0x11A, size: 0x8, addend: 0x0, symName: '__ZL62_logos_orig$_ungrouped$CAMViewfinderViewController$_flashBadge', symObjAddr: 0x4608, symBinAddr: 0xC0C8, symSize: 0x0 }
  - { offsetInCU: 0x171, offset: 0x171, size: 0x8, addend: 0x0, symName: '__ZL86_logos_orig$_ungrouped$CAMViewfinderViewController$_shouldHideHDRButtonForMode$device$', symObjAddr: 0x4610, symBinAddr: 0xC0D0, symSize: 0x0 }
  - { offsetInCU: 0x18A, offset: 0x18A, size: 0x8, addend: 0x0, symName: '__ZL60_logos_orig$_ungrouped$CAMViewfinderViewController$_HDRBadge', symObjAddr: 0x4618, symBinAddr: 0xC0D8, symSize: 0x0 }
  - { offsetInCU: 0x1A3, offset: 0x1A3, size: 0x8, addend: 0x0, symName: '__ZL87_logos_orig$_ungrouped$CAMViewfinderViewController$_shouldHideIrisButtonForMode$device$', symObjAddr: 0x4620, symBinAddr: 0xC0E0, symSize: 0x0 }
  - { offsetInCU: 0x1BC, offset: 0x1BC, size: 0x8, addend: 0x0, symName: '__ZL66_logos_orig$_ungrouped$CAMViewfinderViewController$_livePhotoBadge', symObjAddr: 0x4628, symBinAddr: 0xC0E8, symSize: 0x0 }
  - { offsetInCU: 0x1D5, offset: 0x1D5, size: 0x8, addend: 0x0, symName: '__ZL88_logos_orig$_ungrouped$CAMViewfinderViewController$_shouldHideTimerButtonForMode$device$', symObjAddr: 0x4630, symBinAddr: 0xC0F0, symSize: 0x0 }
  - { offsetInCU: 0x1EE, offset: 0x1EE, size: 0x8, addend: 0x0, symName: '__ZL87_logos_orig$_ungrouped$CAMViewfinderViewController$_shouldHideFlipButtonForMode$device$', symObjAddr: 0x4638, symBinAddr: 0xC0F8, symSize: 0x0 }
  - { offsetInCU: 0x207, offset: 0x207, size: 0x8, addend: 0x0, symName: '__ZL92_logos_orig$_ungrouped$CAMViewfinderViewController$_shouldHideElapsedTimeViewForMode$device$', symObjAddr: 0x4640, symBinAddr: 0xC100, symSize: 0x0 }
  - { offsetInCU: 0x220, offset: 0x220, size: 0x8, addend: 0x0, symName: '__ZL89_logos_orig$_ungrouped$CAMViewfinderViewController$_shouldHidePanoramaViewForMode$device$', symObjAddr: 0x4648, symBinAddr: 0xC108, symSize: 0x0 }
  - { offsetInCU: 0x239, offset: 0x239, size: 0x8, addend: 0x0, symName: '__ZL86_logos_orig$_ungrouped$CAMViewfinderViewController$_shouldHideImageWellForMode$device$', symObjAddr: 0x4650, symBinAddr: 0xC110, symSize: 0x0 }
  - { offsetInCU: 0x252, offset: 0x252, size: 0x8, addend: 0x0, symName: '__ZL89_logos_orig$_ungrouped$CAMViewfinderViewController$_shouldHideFilterButtonForMode$device$', symObjAddr: 0x4658, symBinAddr: 0xC118, symSize: 0x0 }
  - { offsetInCU: 0x26B, offset: 0x26B, size: 0x8, addend: 0x0, symName: '__ZL95_logos_orig$_ungrouped$CAMViewfinderViewController$_shouldHideFramerateIndicatorForMode$device$', symObjAddr: 0x4660, symBinAddr: 0xC120, symSize: 0x0 }
  - { offsetInCU: 0x284, offset: 0x284, size: 0x8, addend: 0x0, symName: '__ZL48_logos_orig$_ungrouped$CAMTopBar$backgroundStyle', symObjAddr: 0x4668, symBinAddr: 0xC128, symSize: 0x0 }
  - { offsetInCU: 0x2BD, offset: 0x2BD, size: 0x8, addend: 0x0, symName: '__ZL59_logos_orig$_ungrouped$CAMFlashButton$_warningIndicatorView', symObjAddr: 0x4670, symBinAddr: 0xC130, symSize: 0x0 }
  - { offsetInCU: 0x2F6, offset: 0x2F6, size: 0x8, addend: 0x0, symName: '__ZL62_logos_orig$_ungrouped$CAMFocusIndicatorRectView$initWithSize$', symObjAddr: 0x4678, symBinAddr: 0xC138, symSize: 0x0 }
  - { offsetInCU: 0x334, offset: 0x334, size: 0x8, addend: 0x0, symName: '__ZL83_logos_orig$_ungrouped$CAMPreviewViewController$_showExposureBiasSliderForPointView', symObjAddr: 0x4680, symBinAddr: 0xC140, symSize: 0x0 }
  - { offsetInCU: 0x36D, offset: 0x36D, size: 0x8, addend: 0x0, symName: '__ZL51_logos_orig$_ungrouped$CAMZoomSlider$initWithFrame$', symObjAddr: 0x4688, symBinAddr: 0xC148, symSize: 0x0 }
  - { offsetInCU: 0x445, offset: 0x445, size: 0x8, addend: 0x0, symName: '__ZL51_logos_orig$_ungrouped$CAMBottomBar$backgroundStyle', symObjAddr: 0x4690, symBinAddr: 0xC150, symSize: 0x0 }
  - { offsetInCU: 0x47E, offset: 0x47E, size: 0x8, addend: 0x0, symName: '__ZL49_logos_orig$_ungrouped$CAMModeDial$initWithFrame$', symObjAddr: 0x4698, symBinAddr: 0xC158, symSize: 0x0 }
  - { offsetInCU: 0x4BC, offset: 0x4BC, size: 0x8, addend: 0x0, symName: '__ZL59_logos_orig$_ungrouped$CUShutterButton$_borderWidthForMode$', symObjAddr: 0x46A0, symBinAddr: 0xC160, symSize: 0x0 }
  - { offsetInCU: 0x4FA, offset: 0x4FA, size: 0x8, addend: 0x0, symName: '__ZL53_logos_orig$_ungrouped$CUShutterButton$_colorForMode$', symObjAddr: 0x46A8, symBinAddr: 0xC168, symSize: 0x0 }
  - { offsetInCU: 0x537, offset: 0x537, size: 0x8, addend: 0x0, symName: __ZL15_logosLocalInitv, symObjAddr: 0x0, symBinAddr: 0x4000, symSize: 0x36C }
  - { offsetInCU: 0x81C, offset: 0x81C, size: 0x8, addend: 0x0, symName: '__ZL75_logos_method$_ungrouped$CAMUserPreferences$shouldResetCaptureConfigurationP18CAMUserPreferencesP13objc_selector', symObjAddr: 0x36C, symBinAddr: 0x436C, symSize: 0x8 }
  - { offsetInCU: 0x869, offset: 0x869, size: 0x8, addend: 0x0, symName: '__ZL75_logos_method$_ungrouped$CAMUserPreferences$shouldResetCaptureConfigurationP18CAMUserPreferencesP13objc_selector', symObjAddr: 0x36C, symBinAddr: 0x436C, symSize: 0x8 }
  - { offsetInCU: 0x89D, offset: 0x89D, size: 0x8, addend: 0x0, symName: '__ZL73_logos_method$_ungrouped$CAMViewfinderViewController$_aspectRatioForMode$P27CAMViewfinderViewControllerP13objc_selectorx', symObjAddr: 0x374, symBinAddr: 0x4374, symSize: 0x8 }
  - { offsetInCU: 0x8DC, offset: 0x8DC, size: 0x8, addend: 0x0, symName: '__ZL90_logos_method$_ungrouped$CAMViewfinderViewController$_shouldHideFlashButtonForMode$device$P27CAMViewfinderViewControllerP13objc_selectorxx', symObjAddr: 0x37C, symBinAddr: 0x437C, symSize: 0x8 }
  - { offsetInCU: 0x926, offset: 0x926, size: 0x8, addend: 0x0, symName: '__ZL64_logos_method$_ungrouped$CAMViewfinderViewController$_flashBadgeP27CAMViewfinderViewControllerP13objc_selector', symObjAddr: 0x384, symBinAddr: 0x4384, symSize: 0x8 }
  - { offsetInCU: 0x95A, offset: 0x95A, size: 0x8, addend: 0x0, symName: '__ZL88_logos_method$_ungrouped$CAMViewfinderViewController$_shouldHideHDRButtonForMode$device$P27CAMViewfinderViewControllerP13objc_selectorxx', symObjAddr: 0x38C, symBinAddr: 0x438C, symSize: 0x8 }
  - { offsetInCU: 0x9A4, offset: 0x9A4, size: 0x8, addend: 0x0, symName: '__ZL62_logos_method$_ungrouped$CAMViewfinderViewController$_HDRBadgeP27CAMViewfinderViewControllerP13objc_selector', symObjAddr: 0x394, symBinAddr: 0x4394, symSize: 0x8 }
  - { offsetInCU: 0x9D8, offset: 0x9D8, size: 0x8, addend: 0x0, symName: '__ZL89_logos_method$_ungrouped$CAMViewfinderViewController$_shouldHideIrisButtonForMode$device$P27CAMViewfinderViewControllerP13objc_selectorxx', symObjAddr: 0x39C, symBinAddr: 0x439C, symSize: 0x8 }
  - { offsetInCU: 0xA22, offset: 0xA22, size: 0x8, addend: 0x0, symName: '__ZL68_logos_method$_ungrouped$CAMViewfinderViewController$_livePhotoBadgeP27CAMViewfinderViewControllerP13objc_selector', symObjAddr: 0x3A4, symBinAddr: 0x43A4, symSize: 0x8 }
  - { offsetInCU: 0xA56, offset: 0xA56, size: 0x8, addend: 0x0, symName: '__ZL90_logos_method$_ungrouped$CAMViewfinderViewController$_shouldHideTimerButtonForMode$device$P27CAMViewfinderViewControllerP13objc_selectorxx', symObjAddr: 0x3AC, symBinAddr: 0x43AC, symSize: 0x8 }
  - { offsetInCU: 0xAA0, offset: 0xAA0, size: 0x8, addend: 0x0, symName: '__ZL89_logos_method$_ungrouped$CAMViewfinderViewController$_shouldHideFlipButtonForMode$device$P27CAMViewfinderViewControllerP13objc_selectorxx', symObjAddr: 0x3B4, symBinAddr: 0x43B4, symSize: 0x8 }
  - { offsetInCU: 0xAEA, offset: 0xAEA, size: 0x8, addend: 0x0, symName: '__ZL94_logos_method$_ungrouped$CAMViewfinderViewController$_shouldHideElapsedTimeViewForMode$device$P27CAMViewfinderViewControllerP13objc_selectorxx', symObjAddr: 0x3BC, symBinAddr: 0x43BC, symSize: 0x8 }
  - { offsetInCU: 0xB34, offset: 0xB34, size: 0x8, addend: 0x0, symName: '__ZL91_logos_method$_ungrouped$CAMViewfinderViewController$_shouldHidePanoramaViewForMode$device$P27CAMViewfinderViewControllerP13objc_selectorxx', symObjAddr: 0x3C4, symBinAddr: 0x43C4, symSize: 0x8 }
  - { offsetInCU: 0xB7E, offset: 0xB7E, size: 0x8, addend: 0x0, symName: '__ZL88_logos_method$_ungrouped$CAMViewfinderViewController$_shouldHideImageWellForMode$device$P27CAMViewfinderViewControllerP13objc_selectorxx', symObjAddr: 0x3CC, symBinAddr: 0x43CC, symSize: 0x8 }
  - { offsetInCU: 0xBC8, offset: 0xBC8, size: 0x8, addend: 0x0, symName: '__ZL91_logos_method$_ungrouped$CAMViewfinderViewController$_shouldHideFilterButtonForMode$device$P27CAMViewfinderViewControllerP13objc_selectorxx', symObjAddr: 0x3D4, symBinAddr: 0x43D4, symSize: 0x8 }
  - { offsetInCU: 0xC12, offset: 0xC12, size: 0x8, addend: 0x0, symName: '__ZL97_logos_method$_ungrouped$CAMViewfinderViewController$_shouldHideFramerateIndicatorForMode$device$P27CAMViewfinderViewControllerP13objc_selectorxx', symObjAddr: 0x3DC, symBinAddr: 0x43DC, symSize: 0x8 }
  - { offsetInCU: 0xC5C, offset: 0xC5C, size: 0x8, addend: 0x0, symName: '__ZL50_logos_method$_ungrouped$CAMTopBar$backgroundStyleP9CAMTopBarP13objc_selector', symObjAddr: 0x3E4, symBinAddr: 0x43E4, symSize: 0x8 }
  - { offsetInCU: 0xC90, offset: 0xC90, size: 0x8, addend: 0x0, symName: '__ZL61_logos_method$_ungrouped$CAMFlashButton$_warningIndicatorViewP14CAMFlashButtonP13objc_selector', symObjAddr: 0x3EC, symBinAddr: 0x43EC, symSize: 0x8 }
  - { offsetInCU: 0xCC4, offset: 0xCC4, size: 0x8, addend: 0x0, symName: '__ZL64_logos_method$_ungrouped$CAMFocusIndicatorRectView$initWithSize$P25CAMFocusIndicatorRectViewP13objc_selectorx', symObjAddr: 0x3F4, symBinAddr: 0x43F4, symSize: 0x8 }
  - { offsetInCU: 0xD03, offset: 0xD03, size: 0x8, addend: 0x0, symName: '__ZL85_logos_method$_ungrouped$CAMPreviewViewController$_showExposureBiasSliderForPointViewP24CAMPreviewViewControllerP13objc_selector', symObjAddr: 0x3FC, symBinAddr: 0x43FC, symSize: 0x8 }
  - { offsetInCU: 0xD37, offset: 0xD37, size: 0x8, addend: 0x0, symName: '__ZL53_logos_method$_ungrouped$CAMZoomSlider$initWithFrame$P13CAMZoomSliderP13objc_selector6CGRect', symObjAddr: 0x404, symBinAddr: 0x4404, symSize: 0x8 }
  - { offsetInCU: 0xD76, offset: 0xD76, size: 0x8, addend: 0x0, symName: '__ZL53_logos_method$_ungrouped$CAMBottomBar$backgroundStyleP12CAMBottomBarP13objc_selector', symObjAddr: 0x40C, symBinAddr: 0x440C, symSize: 0x8 }
  - { offsetInCU: 0xDAA, offset: 0xDAA, size: 0x8, addend: 0x0, symName: '__ZL51_logos_method$_ungrouped$CAMModeDial$initWithFrame$P11CAMModeDialP13objc_selector6CGRect', symObjAddr: 0x414, symBinAddr: 0x4414, symSize: 0x8 }
  - { offsetInCU: 0xDE9, offset: 0xDE9, size: 0x8, addend: 0x0, symName: '__ZL61_logos_method$_ungrouped$CUShutterButton$_borderWidthForMode$P15CUShutterButtonP13objc_selectorx', symObjAddr: 0x41C, symBinAddr: 0x441C, symSize: 0x8 }
  - { offsetInCU: 0xE28, offset: 0xE28, size: 0x8, addend: 0x0, symName: '__ZL55_logos_method$_ungrouped$CUShutterButton$_colorForMode$P15CUShutterButtonP13objc_selectorx', symObjAddr: 0x424, symBinAddr: 0x4424, symSize: 0x10 }
...
