---
triple:          'arm64e-apple-darwin'
binary-path:     '/Users/az/Desktop/sinfool/Sandbox5/SimplePhotosCustomiablec/.theos/obj/arm64e/SimplePhotosCustomiable.dylib'
relocations:
  - { offsetInCU: 0x1E, offset: 0x1E, size: 0x8, addend: 0x0, symName: __ZL15_logosLocalInitv, symObjAddr: 0x0, symBinAddr: 0x4000, symSize: 0x49C }
  - { offsetInCU: 0x4A, offset: 0x4A, size: 0x8, addend: 0x0, symName: '__ZL70_logos_orig$_ungrouped$PUPhotosGridViewController$allowSelectAllButton', symObjAddr: 0xA658, symBinAddr: 0xC0B8, symSize: 0x0 }
  - { offsetInCU: 0x9D, offset: 0x9D, size: 0x8, addend: 0x0, symName: '__ZL66_logos_orig$_ungrouped$PUPhotosGridViewController$alwaysHideTabBar', symObjAddr: 0xA660, symBinAddr: 0xC0C0, symSize: 0x0 }
  - { offsetInCU: 0xB6, offset: 0xB6, size: 0x8, addend: 0x0, symName: '__ZL71_logos_orig$_ungrouped$PUPhotosAlbumViewController$allowSelectAllButton', symObjAddr: 0xA668, symBinAddr: 0xC0C8, symSize: 0x0 }
  - { offsetInCU: 0xEF, offset: 0xEF, size: 0x8, addend: 0x0, symName: '__ZL64_logos_orig$_ungrouped$PUAlbumListViewController$disallowsSearch', symObjAddr: 0xA670, symBinAddr: 0xC0D0, symSize: 0x0 }
  - { offsetInCU: 0x128, offset: 0x128, size: 0x8, addend: 0x0, symName: '__ZL70_logos_orig$_ungrouped$PUAlbumListViewController$canReorderCollection$', symObjAddr: 0xA678, symBinAddr: 0xC0D8, symSize: 0x0 }
  - { offsetInCU: 0x184, offset: 0x184, size: 0x8, addend: 0x0, symName: '__ZL68_logos_orig$_ungrouped$PUAlbumListViewController$_containsAnyAssets$', symObjAddr: 0xA680, symBinAddr: 0xC0E0, symSize: 0x0 }
  - { offsetInCU: 0x19D, offset: 0x19D, size: 0x8, addend: 0x0, symName: '__ZL115_logos_orig$_ungrouped$PUAlbumListViewController$_getDisplayableAssets$indexes$forCollection$maximumCount$useCache$', symObjAddr: 0xA688, symBinAddr: 0xC0E8, symSize: 0x0 }
  - { offsetInCU: 0x1EC, offset: 0x1EC, size: 0x8, addend: 0x0, symName: '__ZL90_logos_orig$_ungrouped$PUAlbumListViewController$navigateToCollection$animated$completion$', symObjAddr: 0xA690, symBinAddr: 0xC0F0, symSize: 0x0 }
  - { offsetInCU: 0x225, offset: 0x225, size: 0x8, addend: 0x0, symName: '__ZL58_logos_orig$_ungrouped$PUAlbumListCellContentView$subtitle', symObjAddr: 0xA698, symBinAddr: 0xC0F8, symSize: 0x0 }
  - { offsetInCU: 0x25E, offset: 0x25E, size: 0x8, addend: 0x0, symName: '__ZL63_logos_orig$_ungrouped$UITableViewCell$_disclosureChevronImage$', symObjAddr: 0xA6A0, symBinAddr: 0xC100, symSize: 0x0 }
  - { offsetInCU: 0x1DFD, offset: 0x1DFD, size: 0x8, addend: 0x0, symName: '__ZL52_logos_orig$_ungrouped$PUOneUpSettings$allowParallax', symObjAddr: 0xA6A8, symBinAddr: 0xC108, symSize: 0x0 }
  - { offsetInCU: 0x1E36, offset: 0x1E36, size: 0x8, addend: 0x0, symName: '__ZL59_logos_orig$_ungrouped$PUOneUpSettings$setInterpageSpacing$', symObjAddr: 0xA6B0, symBinAddr: 0xC110, symSize: 0x0 }
  - { offsetInCU: 0x1E65, offset: 0x1E65, size: 0x8, addend: 0x0, symName: '__ZL87_logos_orig$_ungrouped$PUOneUpSettings$maximumInitialZoomToFillScaleForCompactSizeClass', symObjAddr: 0xA6B8, symBinAddr: 0xC118, symSize: 0x0 }
  - { offsetInCU: 0x1E93, offset: 0x1E93, size: 0x8, addend: 0x0, symName: '__ZL67_logos_orig$_ungrouped$PUOneUpSettings$setDefaultMaximumZoomFactor$', symObjAddr: 0xA6C0, symBinAddr: 0xC120, symSize: 0x0 }
  - { offsetInCU: 0x1EAC, offset: 0x1EAC, size: 0x8, addend: 0x0, symName: '__ZL83_logos_orig$_ungrouped$PUOneUpTilingLayout$tileContentMaximumInitialZoomToFillScale', symObjAddr: 0xA6C8, symBinAddr: 0xC128, symSize: 0x0 }
  - { offsetInCU: 0x1EE5, offset: 0x1EE5, size: 0x8, addend: 0x0, symName: '__ZL71_logos_orig$_ungrouped$PUPhotoBrowserTitleView$_isSecondaryLabelVisible', symObjAddr: 0xA6D0, symBinAddr: 0xC130, symSize: 0x0 }
  - { offsetInCU: 0x1F1E, offset: 0x1F1E, size: 0x8, addend: 0x0, symName: '__ZL62_logos_orig$_ungrouped$PUPhotoBrowserTitleView$_secondaryLabel', symObjAddr: 0xA6D8, symBinAddr: 0xC138, symSize: 0x0 }
  - { offsetInCU: 0x1F4C, offset: 0x1F4C, size: 0x8, addend: 0x0, symName: '__ZL73_logos_orig$_ungrouped$PUPhotoEditViewController$_shouldDisplayRedEyeTool', symObjAddr: 0xA6E0, symBinAddr: 0xC140, symSize: 0x0 }
  - { offsetInCU: 0x1F85, offset: 0x1F85, size: 0x8, addend: 0x0, symName: '__ZL82_logos_orig$_ungrouped$PUDeletePhotosActionController$shouldSkipDeleteConfirmation', symObjAddr: 0xA6E8, symBinAddr: 0xC148, symSize: 0x0 }
  - { offsetInCU: 0x1FBE, offset: 0x1FBE, size: 0x8, addend: 0x0, symName: '__ZL97_logos_orig$_ungrouped$PUTabbedLibraryViewControllerPhoneSpec$createSharedAlbumListViewController', symObjAddr: 0xA6F0, symBinAddr: 0xC150, symSize: 0x0 }
  - { offsetInCU: 0x1FF7, offset: 0x1FF7, size: 0x8, addend: 0x0, symName: '__ZL95_logos_orig$_ungrouped$PUTabbedLibraryViewControllerPadSpec$createSharedAlbumListViewController', symObjAddr: 0xA6F8, symBinAddr: 0xC158, symSize: 0x0 }
  - { offsetInCU: 0x2030, offset: 0x2030, size: 0x8, addend: 0x0, symName: '__ZL83_logos_orig$_ungrouped$UITabBarButton$initWithImage$selectedImage$label$withInsets$', symObjAddr: 0xA700, symBinAddr: 0xC160, symSize: 0x0 }
  - { offsetInCU: 0x207D, offset: 0x207D, size: 0x8, addend: 0x0, symName: '__ZL54_logos_orig$_ungrouped$UITabBar$_backgroundNeedsUpdate', symObjAddr: 0xA708, symBinAddr: 0xC168, symSize: 0x0 }
  - { offsetInCU: 0x249B, offset: 0x249B, size: 0x8, addend: 0x0, symName: '__ZL54_logos_orig$_ungrouped$UITabBar$_wantsAdaptiveBackdrop', symObjAddr: 0xA710, symBinAddr: 0xC170, symSize: 0x0 }
  - { offsetInCU: 0x24B4, offset: 0x24B4, size: 0x8, addend: 0x0, symName: '__ZL76_logos_orig$_ungrouped$PUTabbedLibraryViewController$setSelectedContentMode$', symObjAddr: 0xA718, symBinAddr: 0xC178, symSize: 0x0 }
  - { offsetInCU: 0x24F8, offset: 0x24F8, size: 0x8, addend: 0x0, symName: __ZL15_logosLocalInitv, symObjAddr: 0x0, symBinAddr: 0x4000, symSize: 0x49C }
  - { offsetInCU: 0x2861, offset: 0x2861, size: 0x8, addend: 0x0, symName: '__ZL72_logos_method$_ungrouped$PUPhotosGridViewController$allowSelectAllButtonP26PUPhotosGridViewControllerP13objc_selector', symObjAddr: 0x49C, symBinAddr: 0x449C, symSize: 0x8 }
  - { offsetInCU: 0x2899, offset: 0x2899, size: 0x8, addend: 0x0, symName: '__ZL72_logos_method$_ungrouped$PUPhotosGridViewController$allowSelectAllButtonP26PUPhotosGridViewControllerP13objc_selector', symObjAddr: 0x49C, symBinAddr: 0x449C, symSize: 0x8 }
  - { offsetInCU: 0x28CD, offset: 0x28CD, size: 0x8, addend: 0x0, symName: '__ZL68_logos_method$_ungrouped$PUPhotosGridViewController$alwaysHideTabBarP26PUPhotosGridViewControllerP13objc_selector', symObjAddr: 0x4A4, symBinAddr: 0x44A4, symSize: 0x8 }
  - { offsetInCU: 0x2901, offset: 0x2901, size: 0x8, addend: 0x0, symName: '__ZL73_logos_method$_ungrouped$PUPhotosAlbumViewController$allowSelectAllButtonP27PUPhotosAlbumViewControllerP13objc_selector', symObjAddr: 0x4AC, symBinAddr: 0x44AC, symSize: 0x8 }
  - { offsetInCU: 0x2935, offset: 0x2935, size: 0x8, addend: 0x0, symName: '__ZL66_logos_method$_ungrouped$PUAlbumListViewController$disallowsSearchP25PUAlbumListViewControllerP13objc_selector', symObjAddr: 0x4B4, symBinAddr: 0x44B4, symSize: 0x8 }
  - { offsetInCU: 0x2969, offset: 0x2969, size: 0x8, addend: 0x0, symName: '__ZL72_logos_method$_ungrouped$PUAlbumListViewController$canReorderCollection$P25PUAlbumListViewControllerP13objc_selectorP11objc_object', symObjAddr: 0x4BC, symBinAddr: 0x44BC, symSize: 0x8 }
  - { offsetInCU: 0x29A8, offset: 0x29A8, size: 0x8, addend: 0x0, symName: '__ZL70_logos_method$_ungrouped$PUAlbumListViewController$_containsAnyAssets$P25PUAlbumListViewControllerP13objc_selectorP11objc_object', symObjAddr: 0x4C4, symBinAddr: 0x44C4, symSize: 0x8 }
  - { offsetInCU: 0x29E7, offset: 0x29E7, size: 0x8, addend: 0x0, symName: '__ZL117_logos_method$_ungrouped$PUAlbumListViewController$_getDisplayableAssets$indexes$forCollection$maximumCount$useCache$P25PUAlbumListViewControllerP13objc_selectorPP11objc_objectS5_S4_xb', symObjAddr: 0x4CC, symBinAddr: 0x44CC, symSize: 0x10 }
  - { offsetInCU: 0x2A5C, offset: 0x2A5C, size: 0x8, addend: 0x0, symName: '__ZL92_logos_method$_ungrouped$PUAlbumListViewController$navigateToCollection$animated$completion$P25PUAlbumListViewControllerP13objc_selectorP11objc_objectbS4_', symObjAddr: 0x4DC, symBinAddr: 0x44DC, symSize: 0x10 }
  - { offsetInCU: 0x2A96, offset: 0x2A96, size: 0x8, addend: 0x0, symName: '__ZL92_logos_method$_ungrouped$PUAlbumListViewController$navigateToCollection$animated$completion$P25PUAlbumListViewControllerP13objc_selectorP11objc_objectbS4_', symObjAddr: 0x4DC, symBinAddr: 0x44DC, symSize: 0x10 }
  - { offsetInCU: 0x2AF1, offset: 0x2AF1, size: 0x8, addend: 0x0, symName: '__ZL60_logos_method$_ungrouped$PUAlbumListCellContentView$subtitleP26PUAlbumListCellContentViewP13objc_selector', symObjAddr: 0x4EC, symBinAddr: 0x44EC, symSize: 0x8 }
  - { offsetInCU: 0x2B1D, offset: 0x2B1D, size: 0x8, addend: 0x0, symName: '__ZL60_logos_method$_ungrouped$PUAlbumListCellContentView$subtitleP26PUAlbumListCellContentViewP13objc_selector', symObjAddr: 0x4EC, symBinAddr: 0x44EC, symSize: 0x8 }
  - { offsetInCU: 0x2B51, offset: 0x2B51, size: 0x8, addend: 0x0, symName: '__ZL65_logos_method$_ungrouped$UITableViewCell$_disclosureChevronImage$P15UITableViewCellP13objc_selectorb', symObjAddr: 0x4F4, symBinAddr: 0x44F4, symSize: 0x8 }
  - { offsetInCU: 0x2B90, offset: 0x2B90, size: 0x8, addend: 0x0, symName: '__ZL54_logos_method$_ungrouped$PUOneUpSettings$allowParallaxP15PUOneUpSettingsP13objc_selector', symObjAddr: 0x4FC, symBinAddr: 0x44FC, symSize: 0x8 }
  - { offsetInCU: 0x2BC4, offset: 0x2BC4, size: 0x8, addend: 0x0, symName: '__ZL61_logos_method$_ungrouped$PUOneUpSettings$setInterpageSpacing$P15PUOneUpSettingsP13objc_selectord', symObjAddr: 0x504, symBinAddr: 0x4504, symSize: 0x10 }
  - { offsetInCU: 0x2C0D, offset: 0x2C0D, size: 0x8, addend: 0x0, symName: '__ZL89_logos_method$_ungrouped$PUOneUpSettings$maximumInitialZoomToFillScaleForCompactSizeClassP15PUOneUpSettingsP13objc_selector', symObjAddr: 0x514, symBinAddr: 0x4514, symSize: 0x8 }
  - { offsetInCU: 0x2C26, offset: 0x2C26, size: 0x8, addend: 0x0, symName: '__ZL89_logos_method$_ungrouped$PUOneUpSettings$maximumInitialZoomToFillScaleForCompactSizeClassP15PUOneUpSettingsP13objc_selector', symObjAddr: 0x514, symBinAddr: 0x4514, symSize: 0x8 }
  - { offsetInCU: 0x2C5A, offset: 0x2C5A, size: 0x8, addend: 0x0, symName: '__ZL69_logos_method$_ungrouped$PUOneUpSettings$setDefaultMaximumZoomFactor$P15PUOneUpSettingsP13objc_selectord', symObjAddr: 0x51C, symBinAddr: 0x451C, symSize: 0x14 }
  - { offsetInCU: 0x2CA3, offset: 0x2CA3, size: 0x8, addend: 0x0, symName: '__ZL85_logos_method$_ungrouped$PUOneUpTilingLayout$tileContentMaximumInitialZoomToFillScaleP19PUOneUpTilingLayoutP13objc_selector', symObjAddr: 0x530, symBinAddr: 0x4530, symSize: 0x8 }
  - { offsetInCU: 0x2CBC, offset: 0x2CBC, size: 0x8, addend: 0x0, symName: '__ZL85_logos_method$_ungrouped$PUOneUpTilingLayout$tileContentMaximumInitialZoomToFillScaleP19PUOneUpTilingLayoutP13objc_selector', symObjAddr: 0x530, symBinAddr: 0x4530, symSize: 0x8 }
  - { offsetInCU: 0x2CF0, offset: 0x2CF0, size: 0x8, addend: 0x0, symName: '__ZL73_logos_method$_ungrouped$PUPhotoBrowserTitleView$_isSecondaryLabelVisibleP23PUPhotoBrowserTitleViewP13objc_selector', symObjAddr: 0x538, symBinAddr: 0x4538, symSize: 0x8 }
  - { offsetInCU: 0x2D24, offset: 0x2D24, size: 0x8, addend: 0x0, symName: '__ZL64_logos_method$_ungrouped$PUPhotoBrowserTitleView$_secondaryLabelP23PUPhotoBrowserTitleViewP13objc_selector', symObjAddr: 0x540, symBinAddr: 0x4540, symSize: 0x8 }
  - { offsetInCU: 0x2D58, offset: 0x2D58, size: 0x8, addend: 0x0, symName: '__ZL75_logos_method$_ungrouped$PUPhotoEditViewController$_shouldDisplayRedEyeToolP25PUPhotoEditViewControllerP13objc_selector', symObjAddr: 0x548, symBinAddr: 0x4548, symSize: 0x8 }
  - { offsetInCU: 0x2D8C, offset: 0x2D8C, size: 0x8, addend: 0x0, symName: '__ZL84_logos_method$_ungrouped$PUDeletePhotosActionController$shouldSkipDeleteConfirmationP30PUDeletePhotosActionControllerP13objc_selector', symObjAddr: 0x550, symBinAddr: 0x4550, symSize: 0x8 }
  - { offsetInCU: 0x2DC0, offset: 0x2DC0, size: 0x8, addend: 0x0, symName: '__ZL99_logos_method$_ungrouped$PUTabbedLibraryViewControllerPhoneSpec$createSharedAlbumListViewControllerP38PUTabbedLibraryViewControllerPhoneSpecP13objc_selector', symObjAddr: 0x558, symBinAddr: 0x4558, symSize: 0x8 }
  - { offsetInCU: 0x2DF4, offset: 0x2DF4, size: 0x8, addend: 0x0, symName: '__ZL97_logos_method$_ungrouped$PUTabbedLibraryViewControllerPadSpec$createSharedAlbumListViewControllerP36PUTabbedLibraryViewControllerPadSpecP13objc_selector', symObjAddr: 0x560, symBinAddr: 0x4560, symSize: 0x8 }
  - { offsetInCU: 0x2E28, offset: 0x2E28, size: 0x8, addend: 0x0, symName: '__ZL85_logos_method$_ungrouped$UITabBarButton$initWithImage$selectedImage$label$withInsets$P14UITabBarButtonP13objc_selectorP11objc_objectS4_S4_12UIEdgeInsets', symObjAddr: 0x568, symBinAddr: 0x4568, symSize: 0x8 }
  - { offsetInCU: 0x2E88, offset: 0x2E88, size: 0x8, addend: 0x0, symName: '__ZL56_logos_method$_ungrouped$UITabBar$_backgroundNeedsUpdateP8UITabBarP13objc_selector', symObjAddr: 0x570, symBinAddr: 0x4570, symSize: 0x8 }
  - { offsetInCU: 0x2EBC, offset: 0x2EBC, size: 0x8, addend: 0x0, symName: '__ZL56_logos_method$_ungrouped$UITabBar$_wantsAdaptiveBackdropP8UITabBarP13objc_selector', symObjAddr: 0x578, symBinAddr: 0x4578, symSize: 0x8 }
  - { offsetInCU: 0x2EF0, offset: 0x2EF0, size: 0x8, addend: 0x0, symName: '__ZL78_logos_method$_ungrouped$PUTabbedLibraryViewController$setSelectedContentMode$P29PUTabbedLibraryViewControllerP13objc_selectori', symObjAddr: 0x580, symBinAddr: 0x4580, symSize: 0x10 }
...
