---
triple:          'arm64e-apple-darwin'
binary-path:     '/Users/az/Desktop/sinfool/Sandbox6/SimplePhotosCustomiable/.theos/obj/arm64e/SimplePhotosCustomiable.dylib'
relocations:
  - { offsetInCU: 0x1E, offset: 0x1E, size: 0x8, addend: 0x0, symName: __ZL15_logosLocalInitv, symObjAddr: 0x0, symBinAddr: 0x4000, symSize: 0x3BC }
  - { offsetInCU: 0x4A, offset: 0x4A, size: 0x8, addend: 0x0, symName: '__ZL70_logos_orig$_ungrouped$PUPhotosGridViewController$allowSelectAllButton', symObjAddr: 0x3FF8, symBinAddr: 0xC090, symSize: 0x0 }
  - { offsetInCU: 0x9D, offset: 0x9D, size: 0x8, addend: 0x0, symName: '__ZL71_logos_orig$_ungrouped$PUPhotosAlbumViewController$allowSelectAllButton', symObjAddr: 0x4000, symBinAddr: 0xC098, symSize: 0x0 }
  - { offsetInCU: 0xD6, offset: 0xD6, size: 0x8, addend: 0x0, symName: '__ZL64_logos_orig$_ungrouped$PUAlbumListViewController$disallowsSearch', symObjAddr: 0x4008, symBinAddr: 0xC0A0, symSize: 0x0 }
  - { offsetInCU: 0x10F, offset: 0x10F, size: 0x8, addend: 0x0, symName: '__ZL90_logos_orig$_ungrouped$PUAlbumListViewController$navigateToCollection$animated$completion$', symObjAddr: 0x4010, symBinAddr: 0xC0A8, symSize: 0x0 }
  - { offsetInCU: 0x171, offset: 0x171, size: 0x8, addend: 0x0, symName: '__ZL59_logos_orig$_ungrouped$PUAlbumListViewController$showPeople', symObjAddr: 0x4018, symBinAddr: 0xC0B0, symSize: 0x0 }
  - { offsetInCU: 0x18A, offset: 0x18A, size: 0x8, addend: 0x0, symName: '__ZL83_logos_orig$_ungrouped$PXPhotoKitCollectionsDataSourceManager$canReorderCollection$', symObjAddr: 0x4020, symBinAddr: 0xC0B8, symSize: 0x0 }
  - { offsetInCU: 0x1C8, offset: 0x1C8, size: 0x8, addend: 0x0, symName: '__ZL80_logos_orig$_ungrouped$PXPhotoKitCollectionsDataSourceManager$containsAnyAssets$', symObjAddr: 0x4028, symBinAddr: 0xC0C0, symSize: 0x0 }
  - { offsetInCU: 0x1E1, offset: 0x1E1, size: 0x8, addend: 0x0, symName: '__ZL81_logos_orig$_ungrouped$PXPhotoKitCollectionsDataSourceManager$_containsAnyAssets$', symObjAddr: 0x4030, symBinAddr: 0xC0C8, symSize: 0x0 }
  - { offsetInCU: 0x1FA, offset: 0x1FA, size: 0x8, addend: 0x0, symName: '__ZL61_logos_orig$_ungrouped$PHFetchOptions$includePlacesSmartAlbum', symObjAddr: 0x4038, symBinAddr: 0xC0D0, symSize: 0x0 }
  - { offsetInCU: 0x233, offset: 0x233, size: 0x8, addend: 0x0, symName: '__ZL52_logos_orig$_ungrouped$PUOneUpSettings$allowParallax', symObjAddr: 0x4040, symBinAddr: 0xC0D8, symSize: 0x0 }
  - { offsetInCU: 0x26C, offset: 0x26C, size: 0x8, addend: 0x0, symName: '__ZL59_logos_orig$_ungrouped$PUOneUpSettings$setInterpageSpacing$', symObjAddr: 0x4048, symBinAddr: 0xC0E0, symSize: 0x0 }
  - { offsetInCU: 0x2A2, offset: 0x2A2, size: 0x8, addend: 0x0, symName: '__ZL87_logos_orig$_ungrouped$PUOneUpSettings$maximumInitialZoomToFillScaleForCompactSizeClass', symObjAddr: 0x4050, symBinAddr: 0xC0E8, symSize: 0x0 }
  - { offsetInCU: 0x2D0, offset: 0x2D0, size: 0x8, addend: 0x0, symName: '__ZL67_logos_orig$_ungrouped$PUOneUpSettings$setDefaultMaximumZoomFactor$', symObjAddr: 0x4058, symBinAddr: 0xC0F0, symSize: 0x0 }
  - { offsetInCU: 0x2E9, offset: 0x2E9, size: 0x8, addend: 0x0, symName: '__ZL73_logos_orig$_ungrouped$PUPhotoEditViewController$_shouldDisplayRedEyeTool', symObjAddr: 0x4060, symBinAddr: 0xC0F8, symSize: 0x0 }
  - { offsetInCU: 0x322, offset: 0x322, size: 0x8, addend: 0x0, symName: '__ZL82_logos_orig$_ungrouped$PUDeletePhotosActionController$shouldSkipDeleteConfirmation', symObjAddr: 0x4068, symBinAddr: 0xC100, symSize: 0x0 }
  - { offsetInCU: 0x35B, offset: 0x35B, size: 0x8, addend: 0x0, symName: '__ZL57_logos_orig$_ungrouped$PXMemoriesRelatedSettings$enableUI', symObjAddr: 0x4070, symBinAddr: 0xC108, symSize: 0x0 }
  - { offsetInCU: 0x394, offset: 0x394, size: 0x8, addend: 0x0, symName: '__ZL97_logos_orig$_ungrouped$PUTabbedLibraryViewControllerPhoneSpec$createSharedAlbumListViewController', symObjAddr: 0x4078, symBinAddr: 0xC110, symSize: 0x0 }
  - { offsetInCU: 0x3CD, offset: 0x3CD, size: 0x8, addend: 0x0, symName: '__ZL95_logos_orig$_ungrouped$PUTabbedLibraryViewControllerPadSpec$createSharedAlbumListViewController', symObjAddr: 0x4080, symBinAddr: 0xC118, symSize: 0x0 }
  - { offsetInCU: 0x406, offset: 0x406, size: 0x8, addend: 0x0, symName: '__ZL76_logos_orig$_ungrouped$PUTabbedLibraryViewController$setSelectedContentMode$', symObjAddr: 0x4088, symBinAddr: 0xC120, symSize: 0x0 }
  - { offsetInCU: 0x447, offset: 0x447, size: 0x8, addend: 0x0, symName: '__ZL49_logos_orig$_ungrouped$UITabBarButton$setEnabled$', symObjAddr: 0x4090, symBinAddr: 0xC128, symSize: 0x0 }
  - { offsetInCU: 0x48B, offset: 0x48B, size: 0x8, addend: 0x0, symName: __ZL15_logosLocalInitv, symObjAddr: 0x0, symBinAddr: 0x4000, symSize: 0x3BC }
  - { offsetInCU: 0x766, offset: 0x766, size: 0x8, addend: 0x0, symName: '__ZL72_logos_method$_ungrouped$PUPhotosGridViewController$allowSelectAllButtonP26PUPhotosGridViewControllerP13objc_selector', symObjAddr: 0x3BC, symBinAddr: 0x43BC, symSize: 0x8 }
  - { offsetInCU: 0x7AC, offset: 0x7AC, size: 0x8, addend: 0x0, symName: '__ZL72_logos_method$_ungrouped$PUPhotosGridViewController$allowSelectAllButtonP26PUPhotosGridViewControllerP13objc_selector', symObjAddr: 0x3BC, symBinAddr: 0x43BC, symSize: 0x8 }
  - { offsetInCU: 0x7E0, offset: 0x7E0, size: 0x8, addend: 0x0, symName: '__ZL73_logos_method$_ungrouped$PUPhotosAlbumViewController$allowSelectAllButtonP27PUPhotosAlbumViewControllerP13objc_selector', symObjAddr: 0x3C4, symBinAddr: 0x43C4, symSize: 0x8 }
  - { offsetInCU: 0x814, offset: 0x814, size: 0x8, addend: 0x0, symName: '__ZL66_logos_method$_ungrouped$PUAlbumListViewController$disallowsSearchP25PUAlbumListViewControllerP13objc_selector', symObjAddr: 0x3CC, symBinAddr: 0x43CC, symSize: 0x8 }
  - { offsetInCU: 0x848, offset: 0x848, size: 0x8, addend: 0x0, symName: '__ZL92_logos_method$_ungrouped$PUAlbumListViewController$navigateToCollection$animated$completion$P25PUAlbumListViewControllerP13objc_selectorP11objc_objectbS4_', symObjAddr: 0x3D4, symBinAddr: 0x43D4, symSize: 0x10 }
  - { offsetInCU: 0x8A3, offset: 0x8A3, size: 0x8, addend: 0x0, symName: '__ZL61_logos_method$_ungrouped$PUAlbumListViewController$showPeopleP25PUAlbumListViewControllerP13objc_selector', symObjAddr: 0x3E4, symBinAddr: 0x43E4, symSize: 0x8 }
  - { offsetInCU: 0x8CF, offset: 0x8CF, size: 0x8, addend: 0x0, symName: '__ZL61_logos_method$_ungrouped$PUAlbumListViewController$showPeopleP25PUAlbumListViewControllerP13objc_selector', symObjAddr: 0x3E4, symBinAddr: 0x43E4, symSize: 0x8 }
  - { offsetInCU: 0x903, offset: 0x903, size: 0x8, addend: 0x0, symName: '__ZL85_logos_method$_ungrouped$PXPhotoKitCollectionsDataSourceManager$canReorderCollection$P38PXPhotoKitCollectionsDataSourceManagerP13objc_selectorP11objc_object', symObjAddr: 0x3EC, symBinAddr: 0x43EC, symSize: 0x8 }
  - { offsetInCU: 0x942, offset: 0x942, size: 0x8, addend: 0x0, symName: '__ZL82_logos_method$_ungrouped$PXPhotoKitCollectionsDataSourceManager$containsAnyAssets$P38PXPhotoKitCollectionsDataSourceManagerP13objc_selectorP11objc_object', symObjAddr: 0x3F4, symBinAddr: 0x43F4, symSize: 0x8 }
  - { offsetInCU: 0x981, offset: 0x981, size: 0x8, addend: 0x0, symName: '__ZL83_logos_method$_ungrouped$PXPhotoKitCollectionsDataSourceManager$_containsAnyAssets$P38PXPhotoKitCollectionsDataSourceManagerP13objc_selectorP11objc_object', symObjAddr: 0x3FC, symBinAddr: 0x43FC, symSize: 0x8 }
  - { offsetInCU: 0x9C0, offset: 0x9C0, size: 0x8, addend: 0x0, symName: '__ZL63_logos_method$_ungrouped$PHFetchOptions$includePlacesSmartAlbumP14PHFetchOptionsP13objc_selector', symObjAddr: 0x404, symBinAddr: 0x4404, symSize: 0x8 }
  - { offsetInCU: 0x9F4, offset: 0x9F4, size: 0x8, addend: 0x0, symName: '__ZL54_logos_method$_ungrouped$PUOneUpSettings$allowParallaxP15PUOneUpSettingsP13objc_selector', symObjAddr: 0x40C, symBinAddr: 0x440C, symSize: 0x8 }
  - { offsetInCU: 0xA28, offset: 0xA28, size: 0x8, addend: 0x0, symName: '__ZL61_logos_method$_ungrouped$PUOneUpSettings$setInterpageSpacing$P15PUOneUpSettingsP13objc_selectord', symObjAddr: 0x414, symBinAddr: 0x4414, symSize: 0x10 }
  - { offsetInCU: 0xA71, offset: 0xA71, size: 0x8, addend: 0x0, symName: '__ZL89_logos_method$_ungrouped$PUOneUpSettings$maximumInitialZoomToFillScaleForCompactSizeClassP15PUOneUpSettingsP13objc_selector', symObjAddr: 0x424, symBinAddr: 0x4424, symSize: 0x8 }
  - { offsetInCU: 0xA8A, offset: 0xA8A, size: 0x8, addend: 0x0, symName: '__ZL89_logos_method$_ungrouped$PUOneUpSettings$maximumInitialZoomToFillScaleForCompactSizeClassP15PUOneUpSettingsP13objc_selector', symObjAddr: 0x424, symBinAddr: 0x4424, symSize: 0x8 }
  - { offsetInCU: 0xABE, offset: 0xABE, size: 0x8, addend: 0x0, symName: '__ZL69_logos_method$_ungrouped$PUOneUpSettings$setDefaultMaximumZoomFactor$P15PUOneUpSettingsP13objc_selectord', symObjAddr: 0x42C, symBinAddr: 0x442C, symSize: 0x14 }
  - { offsetInCU: 0xB07, offset: 0xB07, size: 0x8, addend: 0x0, symName: '__ZL75_logos_method$_ungrouped$PUPhotoEditViewController$_shouldDisplayRedEyeToolP25PUPhotoEditViewControllerP13objc_selector', symObjAddr: 0x440, symBinAddr: 0x4440, symSize: 0x8 }
  - { offsetInCU: 0xB20, offset: 0xB20, size: 0x8, addend: 0x0, symName: '__ZL75_logos_method$_ungrouped$PUPhotoEditViewController$_shouldDisplayRedEyeToolP25PUPhotoEditViewControllerP13objc_selector', symObjAddr: 0x440, symBinAddr: 0x4440, symSize: 0x8 }
  - { offsetInCU: 0xB54, offset: 0xB54, size: 0x8, addend: 0x0, symName: '__ZL84_logos_method$_ungrouped$PUDeletePhotosActionController$shouldSkipDeleteConfirmationP30PUDeletePhotosActionControllerP13objc_selector', symObjAddr: 0x448, symBinAddr: 0x4448, symSize: 0x8 }
  - { offsetInCU: 0xB88, offset: 0xB88, size: 0x8, addend: 0x0, symName: '__ZL59_logos_method$_ungrouped$PXMemoriesRelatedSettings$enableUIP25PXMemoriesRelatedSettingsP13objc_selector', symObjAddr: 0x450, symBinAddr: 0x4450, symSize: 0x8 }
  - { offsetInCU: 0xBBC, offset: 0xBBC, size: 0x8, addend: 0x0, symName: '__ZL99_logos_method$_ungrouped$PUTabbedLibraryViewControllerPhoneSpec$createSharedAlbumListViewControllerP38PUTabbedLibraryViewControllerPhoneSpecP13objc_selector', symObjAddr: 0x458, symBinAddr: 0x4458, symSize: 0x8 }
  - { offsetInCU: 0xBF0, offset: 0xBF0, size: 0x8, addend: 0x0, symName: '__ZL97_logos_method$_ungrouped$PUTabbedLibraryViewControllerPadSpec$createSharedAlbumListViewControllerP36PUTabbedLibraryViewControllerPadSpecP13objc_selector', symObjAddr: 0x460, symBinAddr: 0x4460, symSize: 0x8 }
  - { offsetInCU: 0xC24, offset: 0xC24, size: 0x8, addend: 0x0, symName: '__ZL78_logos_method$_ungrouped$PUTabbedLibraryViewController$setSelectedContentMode$P29PUTabbedLibraryViewControllerP13objc_selectori', symObjAddr: 0x468, symBinAddr: 0x4468, symSize: 0x10 }
  - { offsetInCU: 0xC65, offset: 0xC65, size: 0x8, addend: 0x0, symName: '__ZL51_logos_method$_ungrouped$UITabBarButton$setEnabled$P14UITabBarButtonP13objc_selectorb', symObjAddr: 0x478, symBinAddr: 0x4478, symSize: 0x10 }
  - { offsetInCU: 0xC83, offset: 0xC83, size: 0x8, addend: 0x0, symName: '__ZL51_logos_method$_ungrouped$UITabBarButton$setEnabled$P14UITabBarButtonP13objc_selectorb', symObjAddr: 0x478, symBinAddr: 0x4478, symSize: 0x10 }
...
