---
triple:          'arm64e-apple-darwin'
binary-path:     '/Users/az/Desktop/sinfool/Sandbox5/NavBarColorsCustomiable/.theos/obj/arm64e/NavBarColorsCustomiable.dylib'
relocations:
  - { offsetInCU: 0x1E, offset: 0x1E, size: 0x8, addend: 0x0, symName: __ZL15_logosLocalInitv, symObjAddr: 0x0, symBinAddr: 0x4000, symSize: 0x1F4 }
  - { offsetInCU: 0x4A, offset: 0x4A, size: 0x8, addend: 0x0, symName: '__ZL121_logos_orig$_ungrouped$UIStatusBarNewUIStyleAttributes$initWithRequest$backgroundColor$foregroundColor$hasBusyBackground$', symObjAddr: 0x2E20, symBinAddr: 0xC050, symSize: 0x0 }
  - { offsetInCU: 0xDA, offset: 0xDA, size: 0x8, addend: 0x0, symName: '__ZL68_logos_orig$_ungrouped$UIStatusBarNewUIStyleAttributes$isTranslucent', symObjAddr: 0x2E28, symBinAddr: 0xC058, symSize: 0x0 }
  - { offsetInCU: 0x108, offset: 0x108, size: 0x8, addend: 0x0, symName: '__ZL61_logos_orig$_ungrouped$YTAppView$setStatusBarBackgroundColor$', symObjAddr: 0x2E30, symBinAddr: 0xC060, symSize: 0x0 }
  - { offsetInCU: 0x142, offset: 0x142, size: 0x8, addend: 0x0, symName: '__ZL69_logos_orig$_ungrouped$_UINavigationBarBackground$setBackgroundColor$', symObjAddr: 0x2E38, symBinAddr: 0xC068, symSize: 0x0 }
  - { offsetInCU: 0x17C, offset: 0x17C, size: 0x8, addend: 0x0, symName: '__ZL58_logos_orig$_ungrouped$YTNavigationBar$setBackgroundColor$', symObjAddr: 0x2E40, symBinAddr: 0xC070, symSize: 0x0 }
  - { offsetInCU: 0x1B6, offset: 0x1B6, size: 0x8, addend: 0x0, symName: '__ZL78_logos_orig$_ungrouped$YTTitleBar_iPad$setThemeColor$foregroundColor$animated$', symObjAddr: 0x2E48, symBinAddr: 0xC078, symSize: 0x0 }
  - { offsetInCU: 0x1FA, offset: 0x1FA, size: 0x8, addend: 0x0, symName: '__ZL61_logos_orig$_ungrouped$YTRightNavigationButtons$setTintColor$', symObjAddr: 0x2E50, symBinAddr: 0xC080, symSize: 0x0 }
  - { offsetInCU: 0x234, offset: 0x234, size: 0x8, addend: 0x0, symName: '__ZL58_logos_orig$_ungrouped$YTTabTitlesView$setBackgroundColor$', symObjAddr: 0x2E58, symBinAddr: 0xC088, symSize: 0x0 }
  - { offsetInCU: 0x26E, offset: 0x26E, size: 0x8, addend: 0x0, symName: '__ZL51_logos_orig$_ungrouped$YTTabTitlesView$setTabStyle$', symObjAddr: 0x2E60, symBinAddr: 0xC090, symSize: 0x0 }
  - { offsetInCU: 0x2A4, offset: 0x2A4, size: 0x8, addend: 0x0, symName: '__ZL56_logos_orig$_ungrouped$YTTabTitlesView$setTabTitleColor$', symObjAddr: 0x2E68, symBinAddr: 0xC098, symSize: 0x0 }
  - { offsetInCU: 0x2C7, offset: 0x2C7, size: 0x8, addend: 0x0, symName: __ZL15_logosLocalInitv, symObjAddr: 0x0, symBinAddr: 0x4000, symSize: 0x1F4 }
  - { offsetInCU: 0x44E, offset: 0x44E, size: 0x8, addend: 0x0, symName: '__ZL123_logos_method$_ungrouped$UIStatusBarNewUIStyleAttributes$initWithRequest$backgroundColor$foregroundColor$hasBusyBackground$P31UIStatusBarNewUIStyleAttributesP13objc_selectorP11objc_objectS4_S4_b', symObjAddr: 0x1F4, symBinAddr: 0x41F4, symSize: 0xA8 }
  - { offsetInCU: 0x49B, offset: 0x49B, size: 0x8, addend: 0x0, symName: '__ZL123_logos_method$_ungrouped$UIStatusBarNewUIStyleAttributes$initWithRequest$backgroundColor$foregroundColor$hasBusyBackground$P31UIStatusBarNewUIStyleAttributesP13objc_selectorP11objc_objectS4_S4_b', symObjAddr: 0x1F4, symBinAddr: 0x41F4, symSize: 0xA8 }
  - { offsetInCU: 0x514, offset: 0x514, size: 0x8, addend: 0x0, symName: '__ZL70_logos_method$_ungrouped$UIStatusBarNewUIStyleAttributes$isTranslucentP31UIStatusBarNewUIStyleAttributesP13objc_selector', symObjAddr: 0x29C, symBinAddr: 0x429C, symSize: 0x8 }
  - { offsetInCU: 0x53D, offset: 0x53D, size: 0x8, addend: 0x0, symName: '__ZL70_logos_method$_ungrouped$UIStatusBarNewUIStyleAttributes$isTranslucentP31UIStatusBarNewUIStyleAttributesP13objc_selector', symObjAddr: 0x29C, symBinAddr: 0x429C, symSize: 0x8 }
  - { offsetInCU: 0x571, offset: 0x571, size: 0x8, addend: 0x0, symName: '__ZL63_logos_method$_ungrouped$YTAppView$setStatusBarBackgroundColor$P9YTAppViewP13objc_selectorP11objc_object', symObjAddr: 0x2A4, symBinAddr: 0x42A4, symSize: 0x68 }
  - { offsetInCU: 0x5B9, offset: 0x5B9, size: 0x8, addend: 0x0, symName: '__ZL71_logos_method$_ungrouped$_UINavigationBarBackground$setBackgroundColor$P26_UINavigationBarBackgroundP13objc_selectorP11objc_object', symObjAddr: 0x30C, symBinAddr: 0x430C, symSize: 0x68 }
  - { offsetInCU: 0x5D0, offset: 0x5D0, size: 0x8, addend: 0x0, symName: '__ZL71_logos_method$_ungrouped$_UINavigationBarBackground$setBackgroundColor$P26_UINavigationBarBackgroundP13objc_selectorP11objc_object', symObjAddr: 0x30C, symBinAddr: 0x430C, symSize: 0x68 }
  - { offsetInCU: 0x618, offset: 0x618, size: 0x8, addend: 0x0, symName: '__ZL60_logos_method$_ungrouped$YTNavigationBar$setBackgroundColor$P15YTNavigationBarP13objc_selectorP11objc_object', symObjAddr: 0x374, symBinAddr: 0x4374, symSize: 0x68 }
  - { offsetInCU: 0x62F, offset: 0x62F, size: 0x8, addend: 0x0, symName: '__ZL60_logos_method$_ungrouped$YTNavigationBar$setBackgroundColor$P15YTNavigationBarP13objc_selectorP11objc_object', symObjAddr: 0x374, symBinAddr: 0x4374, symSize: 0x68 }
  - { offsetInCU: 0x677, offset: 0x677, size: 0x8, addend: 0x0, symName: '__ZL80_logos_method$_ungrouped$YTTitleBar_iPad$setThemeColor$foregroundColor$animated$P15YTTitleBar_iPadP13objc_selectorP11objc_objectS4_b', symObjAddr: 0x3DC, symBinAddr: 0x43DC, symSize: 0xA0 }
  - { offsetInCU: 0x68E, offset: 0x68E, size: 0x8, addend: 0x0, symName: '__ZL80_logos_method$_ungrouped$YTTitleBar_iPad$setThemeColor$foregroundColor$animated$P15YTTitleBar_iPadP13objc_selectorP11objc_objectS4_b', symObjAddr: 0x3DC, symBinAddr: 0x43DC, symSize: 0xA0 }
  - { offsetInCU: 0x6F4, offset: 0x6F4, size: 0x8, addend: 0x0, symName: '__ZL63_logos_method$_ungrouped$YTRightNavigationButtons$setTintColor$P24YTRightNavigationButtonsP13objc_selectorP11objc_object', symObjAddr: 0x47C, symBinAddr: 0x447C, symSize: 0x64 }
  - { offsetInCU: 0x717, offset: 0x717, size: 0x8, addend: 0x0, symName: '__ZL63_logos_method$_ungrouped$YTRightNavigationButtons$setTintColor$P24YTRightNavigationButtonsP13objc_selectorP11objc_object', symObjAddr: 0x47C, symBinAddr: 0x447C, symSize: 0x64 }
  - { offsetInCU: 0x75F, offset: 0x75F, size: 0x8, addend: 0x0, symName: '__ZL60_logos_method$_ungrouped$YTTabTitlesView$setBackgroundColor$P15YTTabTitlesViewP13objc_selectorP11objc_object', symObjAddr: 0x4E0, symBinAddr: 0x44E0, symSize: 0x68 }
  - { offsetInCU: 0x776, offset: 0x776, size: 0x8, addend: 0x0, symName: '__ZL60_logos_method$_ungrouped$YTTabTitlesView$setBackgroundColor$P15YTTabTitlesViewP13objc_selectorP11objc_object', symObjAddr: 0x4E0, symBinAddr: 0x44E0, symSize: 0x68 }
  - { offsetInCU: 0x7BE, offset: 0x7BE, size: 0x8, addend: 0x0, symName: '__ZL53_logos_method$_ungrouped$YTTabTitlesView$setTabStyle$P15YTTabTitlesViewP13objc_selectorx', symObjAddr: 0x548, symBinAddr: 0x4548, symSize: 0x10 }
  - { offsetInCU: 0x7D5, offset: 0x7D5, size: 0x8, addend: 0x0, symName: '__ZL53_logos_method$_ungrouped$YTTabTitlesView$setTabStyle$P15YTTabTitlesViewP13objc_selectorx', symObjAddr: 0x548, symBinAddr: 0x4548, symSize: 0x10 }
  - { offsetInCU: 0x816, offset: 0x816, size: 0x8, addend: 0x0, symName: '__ZL58_logos_method$_ungrouped$YTTabTitlesView$setTabTitleColor$P15YTTabTitlesViewP13objc_selectorP11objc_object', symObjAddr: 0x558, symBinAddr: 0x4558, symSize: 0x64 }
  - { offsetInCU: 0x834, offset: 0x834, size: 0x8, addend: 0x0, symName: '__ZL58_logos_method$_ungrouped$YTTabTitlesView$setTabTitleColor$P15YTTabTitlesViewP13objc_selectorP11objc_object', symObjAddr: 0x558, symBinAddr: 0x4558, symSize: 0x64 }
...
